                              1 ;--------------------------------------------------------
                              2 ; File Created by SDCC : free open source ANSI-C Compiler
                              3 ; Version 4.0.0 #11528 (MINGW64)
                              4 ;--------------------------------------------------------
                              5 	.module watchmen
                              6 	.optsdcc -mz80
                              7 	
                              8 ;--------------------------------------------------------
                              9 ; Public variables in this module
                             10 ;--------------------------------------------------------
                             11 	.globl _main
                             12 	.globl _rand
                             13 	.globl _HMMM
                             14 	.globl _HMMC
                             15 	.globl _BoxFill
                             16 	.globl _getBuffer
                             17 	.globl _puts
                             18 	.globl _printf
                             19 	.globl _Read
                             20 	.globl _Close
                             21 	.globl _Open
                             22 	.globl _sys_entity_get_array_structs_objects
                             23 	.globl _sys_entity_get_array_structs_enemies
                             24 	.globl _sys_entity_create_object
                             25 	.globl _sys_entity_create_enemy1
                             26 	.globl _PT3Rout
                             27 	.globl _PT3Play
                             28 	.globl _PT3Init
                             29 	.globl _SC5SpriteColors
                             30 	.globl _SetSpritePattern
                             31 	.globl _PutSprite
                             32 	.globl _SpriteReset
                             33 	.globl _SpriteOn
                             34 	.globl _SpriteOff
                             35 	.globl _SpriteSmall
                             36 	.globl _Sprite16
                             37 	.globl _fcb_read
                             38 	.globl _fcb_close
                             39 	.globl _fcb_open
                             40 	.globl _InitPSG
                             41 	.globl _Itoa
                             42 	.globl _WaitKey
                             43 	.globl _PutText
                             44 	.globl _SetColors
                             45 	.globl _TriggerRead
                             46 	.globl _JoystickRead
                             47 	.globl _RealTimer
                             48 	.globl _SetRealTimer
                             49 	.globl _Screen
                             50 	.globl _Cls
                             51 	.globl _Beep
                             52 	.globl _KeySound
                             53 	.globl _fileNameSong
                             54 	.globl _fileNameSongEffects
                             55 	.globl _world_objects
                             56 	.globl _world_enemies
                             57 	.globl _COLOR_DATA_MONEY
                             58 	.globl _COLOR_DATA_ENEMY
                             59 	.globl _COLOR_DATA
                             60 	.globl _SPRITE_DATA
                             61 	.globl _resultado
                             62 	.globl _array_objects
                             63 	.globl _array_enemies
                             64 	.globl _memory_space
                             65 	.globl _secunds
                             66 	.globl _minutes
                             67 	.globl _hours
                             68 	.globl _time
                             69 	.globl _world_money
                             70 	.globl _enabled_world_change
                             71 	.globl _world_change
                             72 	.globl _actual_world
                             73 	.globl _player
                             74 	.globl _TFileMusic
                             75 	.globl _songBuffer
                             76 	.globl _TFileEffects
                             77 	.globl _songEffectsBuffer
                             78 	.globl _sys_ai_contador
                             79 	.globl _array_jump
                             80 	.globl _contador_jump
                             81 	.globl _bufferDir
                             82 	.globl _buffer
                             83 	.globl _num_objects
                             84 	.globl _num_enemies
                             85 	.globl _array_structs_objects
                             86 	.globl _array_structs_enemies
                             87 	.globl _enemy1_template
                             88 	.globl _object_template
                             89 	.globl _player_template
                             90 	.globl _sys_entities_init
                             91 	.globl _sys_entity_create_player
                             92 	.globl _sys_entity_erase_enemy
                             93 	.globl _sys_entity_erase_all_enemies
                             94 	.globl _sys_entity_erase_object
                             95 	.globl _sys_entity_erase_all_objects
                             96 	.globl _sys_entity_get_num_enemies
                             97 	.globl _sys_entity_get_num_objects
                             98 	.globl _sys_entity_get_max_enemies
                             99 	.globl _sys_entity_get_max_objects
                            100 	.globl _sys_anim_init
                            101 	.globl _sys_anim_update
                            102 	.globl _load_file_into_buffer_with_structure
                            103 	.globl _load_file_into_buffer
                            104 	.globl _enter_name_and_extension_in_structure
                            105 	.globl _sys_collider_init
                            106 	.globl _sys_collider_get_column_entity
                            107 	.globl _sys_collider_get_file_entity
                            108 	.globl _sys_collider_get_tile_array
                            109 	.globl _sys_collider_get_tile_down_array
                            110 	.globl _sys_collider_get_tile_right_array
                            111 	.globl _sys_collider_get_tile_left_array
                            112 	.globl _sys_collider_entity1_collider_entity
                            113 	.globl _sys_physics_update
                            114 	.globl _sys_physics_check_keyboard
                            115 	.globl _entity_jump
                            116 	.globl _sys_render_init
                            117 	.globl _sys_render_update
                            118 	.globl _sys_render_update_player
                            119 	.globl _sys_render_update_enemy
                            120 	.globl _sys_render_update_object
                            121 	.globl _sys_ai_init
                            122 	.globl _sys_ai_update
                            123 	.globl _sys_ai_update_enemy_behavior_1
                            124 	.globl _sys_ai_update_enemy_boss1
                            125 	.globl _man_game_init
                            126 	.globl _man_game_play
                            127 	.globl _man_game_update
                            128 	.globl _man_game_check_change_world
                            129 	.globl _man_game_pintarMapa
                            130 	.globl _man_game_showBuffer
                            131 	.globl _man_game_copiarSpritesVRAM
                            132 	.globl _wait
                            133 	.globl _man_game_cargar_buffer_musica
                            134 	.globl _man_game_reproducir_musica_y_efectos
                            135 	.globl _man_game_cargar_buffer_efectos_sonido
                            136 	.globl _man_game_reproducir_efecto_sonido
                            137 	.globl _debug
                            138 	.globl _pintar_HUD
                            139 ;--------------------------------------------------------
                            140 ; special function registers
                            141 ;--------------------------------------------------------
                            142 ;--------------------------------------------------------
                            143 ; ram data
                            144 ;--------------------------------------------------------
                            145 	.area _DATA
   0000                     146 _array_structs_enemies::
   0000                     147 	.ds 230
   00E6                     148 _array_structs_objects::
   00E6                     149 	.ds 230
   01CC                     150 _num_enemies::
   01CC                     151 	.ds 1
   01CD                     152 _num_objects::
   01CD                     153 	.ds 1
   01CE                     154 _buffer::
   01CE                     155 	.ds 27142
   6BD4                     156 _bufferDir::
   6BD4                     157 	.ds 2
   6BD6                     158 _contador_jump::
   6BD6                     159 	.ds 1
   6BD7                     160 _array_jump::
   6BD7                     161 	.ds 5
   6BDC                     162 _sys_ai_contador::
   6BDC                     163 	.ds 2
   6BDE                     164 _songEffectsBuffer::
   6BDE                     165 	.ds 1207
   7095                     166 _TFileEffects::
   7095                     167 	.ds 37
   70BA                     168 _songBuffer::
   70BA                     169 	.ds 264
   71C2                     170 _TFileMusic::
   71C2                     171 	.ds 37
   71E7                     172 _player::
   71E7                     173 	.ds 2
   71E9                     174 _actual_world::
   71E9                     175 	.ds 1
   71EA                     176 _world_change::
   71EA                     177 	.ds 1
   71EB                     178 _enabled_world_change::
   71EB                     179 	.ds 1
   71EC                     180 _world_money::
   71EC                     181 	.ds 1
   71ED                     182 _time::
   71ED                     183 	.ds 2
   71EF                     184 _hours::
   71EF                     185 	.ds 2
   71F1                     186 _minutes::
   71F1                     187 	.ds 2
   71F3                     188 _secunds::
   71F3                     189 	.ds 2
   71F5                     190 _memory_space::
   71F5                     191 	.ds 2
   71F7                     192 _array_enemies::
   71F7                     193 	.ds 2
   71F9                     194 _array_objects::
   71F9                     195 	.ds 2
   71FB                     196 _resultado::
   71FB                     197 	.ds 2
                            198 ;--------------------------------------------------------
                            199 ; ram data
                            200 ;--------------------------------------------------------
                            201 	.area _INITIALIZED
   0000                     202 _SPRITE_DATA::
   0000                     203 	.ds 416
   01A0                     204 _COLOR_DATA::
   01A0                     205 	.ds 208
   0270                     206 _COLOR_DATA_ENEMY::
   0270                     207 	.ds 16
   0280                     208 _COLOR_DATA_MONEY::
   0280                     209 	.ds 16
   0290                     210 _world_enemies::
   0290                     211 	.ds 100
   02F4                     212 _world_objects::
   02F4                     213 	.ds 100
   0358                     214 _fileNameSongEffects::
   0358                     215 	.ds 12
   0364                     216 _fileNameSong::
   0364                     217 	.ds 10
                            218 ;--------------------------------------------------------
                            219 ; absolute external ram data
                            220 ;--------------------------------------------------------
                            221 	.area _DABS (ABS)
                            222 ;--------------------------------------------------------
                            223 ; global & static initialisations
                            224 ;--------------------------------------------------------
                            225 	.area _HOME
                            226 	.area _GSINIT
                            227 	.area _GSFINAL
                            228 	.area _GSINIT
                            229 ;--------------------------------------------------------
                            230 ; Home
                            231 ;--------------------------------------------------------
                            232 	.area _HOME
                            233 	.area _HOME
                            234 ;--------------------------------------------------------
                            235 ; code
                            236 ;--------------------------------------------------------
                            237 	.area _CODE
                            238 ;/Users/casa/Desktop/MSX1-MSX2-ZX-asm-basic-watchmen/MSX2/C/src/man/entity.c:156: void sys_entities_init(){
                            239 ;	---------------------------------
                            240 ; Function sys_entities_init
                            241 ; ---------------------------------
   0000                     242 _sys_entities_init::
                            243 ;/Users/casa/Desktop/MSX1-MSX2-ZX-asm-basic-watchmen/MSX2/C/src/man/entity.c:159: memset(array_structs_enemies,0,sizeof(array_structs_enemies) );
   0000 21r00r00      [10]  244 	ld	hl, #_array_structs_enemies
   0003 06 E6         [ 7]  245 	ld	b, #0xe6
   0005                     246 00103$:
   0005 36 00         [10]  247 	ld	(hl), #0x00
   0007 23            [ 6]  248 	inc	hl
   0008 10 FB         [13]  249 	djnz	00103$
                            250 ;/Users/casa/Desktop/MSX1-MSX2-ZX-asm-basic-watchmen/MSX2/C/src/man/entity.c:163: memset(array_structs_objects,0,sizeof(array_structs_objects) );
   000A 21rE6r00      [10]  251 	ld	hl, #_array_structs_objects
   000D 06 E6         [ 7]  252 	ld	b, #0xe6
   000F                     253 00105$:
   000F 36 00         [10]  254 	ld	(hl), #0x00
   0011 23            [ 6]  255 	inc	hl
   0012 10 FB         [13]  256 	djnz	00105$
                            257 ;/Users/casa/Desktop/MSX1-MSX2-ZX-asm-basic-watchmen/MSX2/C/src/man/entity.c:164: num_enemies=0;
   0014 21rCCr01      [10]  258 	ld	hl,#_num_enemies + 0
   0017 36 00         [10]  259 	ld	(hl), #0x00
                            260 ;/Users/casa/Desktop/MSX1-MSX2-ZX-asm-basic-watchmen/MSX2/C/src/man/entity.c:166: num_objects=0;
   0019 21rCDr01      [10]  261 	ld	hl,#_num_objects + 0
   001C 36 00         [10]  262 	ld	(hl), #0x00
                            263 ;/Users/casa/Desktop/MSX1-MSX2-ZX-asm-basic-watchmen/MSX2/C/src/man/entity.c:167: }
   001E C9            [10]  264 	ret
   001F                     265 _Done_Version:
   001F 4D 61 64 65 20 77   266 	.ascii "Made with FUSION-C 1.2 (ebsoft)"
        69 74 68 20 46 55
        53 49 4F 4E 2D 43
        20 31 2E 32 20 28
        65 62 73 6F 66 74
        29
   003E 00                  267 	.db 0x00
   003F                     268 _player_template:
   003F 01                  269 	.db #0x01	; 1
   0040 07                  270 	.db #0x07	; 7
   0041 00 00               271 	.dw #0x0000
   0043 00 00               272 	.dw #0x0000
   0045 08                  273 	.db #0x08	; 8
   0046 80                  274 	.db #0x80	; 128
   0047 10                  275 	.db #0x10	; 16
   0048 10                  276 	.db #0x10	; 16
   0049 04                  277 	.db #0x04	;  4
   004A 04                  278 	.db #0x04	;  4
   004B 03                  279 	.db #0x03	; 3
   004C 00                  280 	.db #0x00	; 0
   004D 00                  281 	.db #0x00	; 0
   004E 00                  282 	.db #0x00	; 0
   004F 00                  283 	.db #0x00	; 0
   0050 00                  284 	.db #0x00	; 0
   0051 0A 00               285 	.dw #0x000a
   0053 0A                  286 	.db #0x0a	; 10
   0054 00 00               287 	.dw #0x0000
   0056                     288 _object_template:
   0056 16                  289 	.db #0x16	; 22
   0057 03                  290 	.db #0x03	; 3
   0058 00 00               291 	.dw #0x0000
   005A 00 00               292 	.dw #0x0000
   005C 00                  293 	.db #0x00	; 0
   005D 00                  294 	.db #0x00	; 0
   005E 08                  295 	.db #0x08	; 8
   005F 08                  296 	.db #0x08	; 8
   0060 08                  297 	.db #0x08	;  8
   0061 08                  298 	.db #0x08	;  8
   0062 03                  299 	.db #0x03	; 3
   0063 00                  300 	.db #0x00	; 0
   0064 00                  301 	.db #0x00	; 0
   0065 00                  302 	.db #0x00	; 0
   0066 0F                  303 	.db #0x0f	; 15
   0067 00                  304 	.db #0x00	; 0
   0068 0A 00               305 	.dw #0x000a
   006A 0A                  306 	.db #0x0a	; 10
   006B 00 00               307 	.dw #0x0000
   006D                     308 _enemy1_template:
   006D 02                  309 	.db #0x02	; 2
   006E 03                  310 	.db #0x03	; 3
   006F 00 00               311 	.dw #0x0000
   0071 00 00               312 	.dw #0x0000
   0073 00                  313 	.db #0x00	; 0
   0074 00                  314 	.db #0x00	; 0
   0075 08                  315 	.db #0x08	; 8
   0076 08                  316 	.db #0x08	; 8
   0077 04                  317 	.db #0x04	;  4
   0078 04                  318 	.db #0x04	;  4
   0079 03                  319 	.db #0x03	; 3
   007A 00                  320 	.db #0x00	; 0
   007B 00                  321 	.db #0x00	; 0
   007C 00                  322 	.db #0x00	; 0
   007D 05                  323 	.db #0x05	; 5
   007E 00                  324 	.db #0x00	; 0
   007F 0A 00               325 	.dw #0x000a
   0081 0A                  326 	.db #0x0a	; 10
   0082 00 00               327 	.dw #0x0000
                            328 ;/Users/casa/Desktop/MSX1-MSX2-ZX-asm-basic-watchmen/MSX2/C/src/man/entity.c:171: TEntity* sys_entity_create_player(){
                            329 ;	---------------------------------
                            330 ; Function sys_entity_create_player
                            331 ; ---------------------------------
   0084                     332 _sys_entity_create_player::
                            333 ;/Users/casa/Desktop/MSX1-MSX2-ZX-asm-basic-watchmen/MSX2/C/src/man/entity.c:172: return &player_template;
   0084 21r3Fr00      [10]  334 	ld	hl, #_player_template
                            335 ;/Users/casa/Desktop/MSX1-MSX2-ZX-asm-basic-watchmen/MSX2/C/src/man/entity.c:173: }
   0087 C9            [10]  336 	ret
                            337 ;/Users/casa/Desktop/MSX1-MSX2-ZX-asm-basic-watchmen/MSX2/C/src/man/entity.c:174: TEntity* sys_entity_create_enemy1(){
                            338 ;	---------------------------------
                            339 ; Function sys_entity_create_enemy1
                            340 ; ---------------------------------
   0088                     341 _sys_entity_create_enemy1::
                            342 ;/Users/casa/Desktop/MSX1-MSX2-ZX-asm-basic-watchmen/MSX2/C/src/man/entity.c:175: TEntity* enemy=&array_structs_enemies[num_enemies];
   0088 01r00r00      [10]  343 	ld	bc, #_array_structs_enemies+0
   008B ED 5BrCCr01   [20]  344 	ld	de, (_num_enemies)
   008F 16 00         [ 7]  345 	ld	d, #0x00
   0091 6B            [ 4]  346 	ld	l, e
   0092 62            [ 4]  347 	ld	h, d
   0093 29            [11]  348 	add	hl, hl
   0094 29            [11]  349 	add	hl, hl
   0095 19            [11]  350 	add	hl, de
   0096 29            [11]  351 	add	hl, hl
   0097 19            [11]  352 	add	hl, de
   0098 29            [11]  353 	add	hl, hl
   0099 19            [11]  354 	add	hl, de
   009A 09            [11]  355 	add	hl, bc
   009B 4D            [ 4]  356 	ld	c, l
   009C 44            [ 4]  357 	ld	b, h
                            358 ;/Users/casa/Desktop/MSX1-MSX2-ZX-asm-basic-watchmen/MSX2/C/src/man/entity.c:176: memcpy(enemy,&enemy1_template,sizeof(TEntity));
   009D 59            [ 4]  359 	ld	e, c
   009E 50            [ 4]  360 	ld	d, b
   009F C5            [11]  361 	push	bc
   00A0 21r6Dr00      [10]  362 	ld	hl, #_enemy1_template
   00A3 01 17 00      [10]  363 	ld	bc, #0x0017
   00A6 ED B0         [21]  364 	ldir
   00A8 C1            [10]  365 	pop	bc
                            366 ;/Users/casa/Desktop/MSX1-MSX2-ZX-asm-basic-watchmen/MSX2/C/src/man/entity.c:177: ++num_enemies;
   00A9 21rCCr01      [10]  367 	ld	hl, #_num_enemies+0
   00AC 34            [11]  368 	inc	(hl)
                            369 ;/Users/casa/Desktop/MSX1-MSX2-ZX-asm-basic-watchmen/MSX2/C/src/man/entity.c:178: return enemy;
   00AD 69            [ 4]  370 	ld	l, c
   00AE 60            [ 4]  371 	ld	h, b
                            372 ;/Users/casa/Desktop/MSX1-MSX2-ZX-asm-basic-watchmen/MSX2/C/src/man/entity.c:179: }  
   00AF C9            [10]  373 	ret
                            374 ;/Users/casa/Desktop/MSX1-MSX2-ZX-asm-basic-watchmen/MSX2/C/src/man/entity.c:188: TEntity* sys_entity_create_object(){
                            375 ;	---------------------------------
                            376 ; Function sys_entity_create_object
                            377 ; ---------------------------------
   00B0                     378 _sys_entity_create_object::
                            379 ;/Users/casa/Desktop/MSX1-MSX2-ZX-asm-basic-watchmen/MSX2/C/src/man/entity.c:189: TEntity* object=&array_structs_objects[num_objects];
   00B0 01rE6r00      [10]  380 	ld	bc, #_array_structs_objects+0
   00B3 ED 5BrCDr01   [20]  381 	ld	de, (_num_objects)
   00B7 16 00         [ 7]  382 	ld	d, #0x00
   00B9 6B            [ 4]  383 	ld	l, e
   00BA 62            [ 4]  384 	ld	h, d
   00BB 29            [11]  385 	add	hl, hl
   00BC 29            [11]  386 	add	hl, hl
   00BD 19            [11]  387 	add	hl, de
   00BE 29            [11]  388 	add	hl, hl
   00BF 19            [11]  389 	add	hl, de
   00C0 29            [11]  390 	add	hl, hl
   00C1 19            [11]  391 	add	hl, de
   00C2 09            [11]  392 	add	hl, bc
   00C3 4D            [ 4]  393 	ld	c, l
   00C4 44            [ 4]  394 	ld	b, h
                            395 ;/Users/casa/Desktop/MSX1-MSX2-ZX-asm-basic-watchmen/MSX2/C/src/man/entity.c:190: memcpy(object,&object_template,sizeof(TEntity));
   00C5 59            [ 4]  396 	ld	e, c
   00C6 50            [ 4]  397 	ld	d, b
   00C7 C5            [11]  398 	push	bc
   00C8 21r56r00      [10]  399 	ld	hl, #_object_template
   00CB 01 17 00      [10]  400 	ld	bc, #0x0017
   00CE ED B0         [21]  401 	ldir
   00D0 C1            [10]  402 	pop	bc
                            403 ;/Users/casa/Desktop/MSX1-MSX2-ZX-asm-basic-watchmen/MSX2/C/src/man/entity.c:191: ++num_objects;
   00D1 21rCDr01      [10]  404 	ld	hl, #_num_objects+0
   00D4 34            [11]  405 	inc	(hl)
                            406 ;/Users/casa/Desktop/MSX1-MSX2-ZX-asm-basic-watchmen/MSX2/C/src/man/entity.c:192: return object;
   00D5 69            [ 4]  407 	ld	l, c
   00D6 60            [ 4]  408 	ld	h, b
                            409 ;/Users/casa/Desktop/MSX1-MSX2-ZX-asm-basic-watchmen/MSX2/C/src/man/entity.c:193: }  
   00D7 C9            [10]  410 	ret
                            411 ;/Users/casa/Desktop/MSX1-MSX2-ZX-asm-basic-watchmen/MSX2/C/src/man/entity.c:195: void sys_entity_erase_enemy(char i){
                            412 ;	---------------------------------
                            413 ; Function sys_entity_erase_enemy
                            414 ; ---------------------------------
   00D8                     415 _sys_entity_erase_enemy::
   00D8 CDr00r00      [17]  416 	call	___sdcc_enter_ix
                            417 ;/Users/casa/Desktop/MSX1-MSX2-ZX-asm-basic-watchmen/MSX2/C/src/man/entity.c:196: --num_enemies;
   00DB 21rCCr01      [10]  418 	ld	hl, #_num_enemies+0
   00DE 35            [11]  419 	dec	(hl)
                            420 ;/Users/casa/Desktop/MSX1-MSX2-ZX-asm-basic-watchmen/MSX2/C/src/man/entity.c:197: TEntity *enemy=&array_structs_enemies[i];
   00DF DD 4E 04      [19]  421 	ld	c, 4 (ix)
   00E2 06 00         [ 7]  422 	ld	b, #0x00
   00E4 69            [ 4]  423 	ld	l, c
   00E5 60            [ 4]  424 	ld	h, b
   00E6 29            [11]  425 	add	hl, hl
   00E7 29            [11]  426 	add	hl, hl
   00E8 09            [11]  427 	add	hl, bc
   00E9 29            [11]  428 	add	hl, hl
   00EA 09            [11]  429 	add	hl, bc
   00EB 29            [11]  430 	add	hl, hl
   00EC 09            [11]  431 	add	hl, bc
   00ED EB            [ 4]  432 	ex	de, hl
   00EE 21r00r00      [10]  433 	ld	hl, #_array_structs_enemies
   00F1 19            [11]  434 	add	hl, de
   00F2 EB            [ 4]  435 	ex	de, hl
   00F3 6B            [ 4]  436 	ld	l, e
   00F4 62            [ 4]  437 	ld	h, d
                            438 ;/Users/casa/Desktop/MSX1-MSX2-ZX-asm-basic-watchmen/MSX2/C/src/man/entity.c:198: PutSprite(enemy->plane , player_Jump_right_pattern, 0,212,0 );
   00F5 01 11 00      [10]  439 	ld	bc, #0x0011
   00F8 09            [11]  440 	add	hl, bc
   00F9 46            [ 7]  441 	ld	b, (hl)
   00FA D5            [11]  442 	push	de
   00FB AF            [ 4]  443 	xor	a, a
   00FC 57            [ 4]  444 	ld	d,a
   00FD 1E D4         [ 7]  445 	ld	e,#0xd4
   00FF D5            [11]  446 	push	de
   0100 AF            [ 4]  447 	xor	a, a
   0101 57            [ 4]  448 	ld	d,a
   0102 1E 1C         [ 7]  449 	ld	e,#0x1c
   0104 D5            [11]  450 	push	de
   0105 C5            [11]  451 	push	bc
   0106 33            [ 6]  452 	inc	sp
   0107 CDr00r00      [17]  453 	call	_PutSprite
   010A F1            [10]  454 	pop	af
   010B F1            [10]  455 	pop	af
   010C 33            [ 6]  456 	inc	sp
   010D D1            [10]  457 	pop	de
                            458 ;/Users/casa/Desktop/MSX1-MSX2-ZX-asm-basic-watchmen/MSX2/C/src/man/entity.c:200: memcpy(&array_structs_enemies[i],&array_structs_enemies[num_enemies],sizeof(TEntity));
   010E ED 4BrCCr01   [20]  459 	ld	bc, (_num_enemies)
   0112 06 00         [ 7]  460 	ld	b, #0x00
   0114 69            [ 4]  461 	ld	l, c
   0115 60            [ 4]  462 	ld	h, b
   0116 29            [11]  463 	add	hl, hl
   0117 29            [11]  464 	add	hl, hl
   0118 09            [11]  465 	add	hl, bc
   0119 29            [11]  466 	add	hl, hl
   011A 09            [11]  467 	add	hl, bc
   011B 29            [11]  468 	add	hl, hl
   011C 09            [11]  469 	add	hl, bc
   011D 01r00r00      [10]  470 	ld	bc, #_array_structs_enemies
   0120 09            [11]  471 	add	hl, bc
   0121 01 17 00      [10]  472 	ld	bc, #0x0017
   0124 ED B0         [21]  473 	ldir
                            474 ;/Users/casa/Desktop/MSX1-MSX2-ZX-asm-basic-watchmen/MSX2/C/src/man/entity.c:201: }
   0126 DD E1         [14]  475 	pop	ix
   0128 C9            [10]  476 	ret
                            477 ;/Users/casa/Desktop/MSX1-MSX2-ZX-asm-basic-watchmen/MSX2/C/src/man/entity.c:202: void sys_entity_erase_all_enemies(){
                            478 ;	---------------------------------
                            479 ; Function sys_entity_erase_all_enemies
                            480 ; ---------------------------------
   0129                     481 _sys_entity_erase_all_enemies::
                            482 ;/Users/casa/Desktop/MSX1-MSX2-ZX-asm-basic-watchmen/MSX2/C/src/man/entity.c:203: for (char i=0;i<sys_entity_get_num_enemies();++i){
   0129 06 00         [ 7]  483 	ld	b, #0x00
   012B                     484 00103$:
   012B C5            [11]  485 	push	bc
   012C CDrACr01      [17]  486 	call	_sys_entity_get_num_enemies
   012F C1            [10]  487 	pop	bc
   0130 78            [ 4]  488 	ld	a, b
   0131 95            [ 4]  489 	sub	a, l
   0132 D0            [11]  490 	ret	NC
                            491 ;/Users/casa/Desktop/MSX1-MSX2-ZX-asm-basic-watchmen/MSX2/C/src/man/entity.c:204: sys_entity_erase_enemy(i);
   0133 C5            [11]  492 	push	bc
   0134 C5            [11]  493 	push	bc
   0135 33            [ 6]  494 	inc	sp
   0136 CDrD8r00      [17]  495 	call	_sys_entity_erase_enemy
   0139 33            [ 6]  496 	inc	sp
   013A C1            [10]  497 	pop	bc
                            498 ;/Users/casa/Desktop/MSX1-MSX2-ZX-asm-basic-watchmen/MSX2/C/src/man/entity.c:203: for (char i=0;i<sys_entity_get_num_enemies();++i){
   013B 04            [ 4]  499 	inc	b
                            500 ;/Users/casa/Desktop/MSX1-MSX2-ZX-asm-basic-watchmen/MSX2/C/src/man/entity.c:206: }
   013C 18 ED         [12]  501 	jr	00103$
                            502 ;/Users/casa/Desktop/MSX1-MSX2-ZX-asm-basic-watchmen/MSX2/C/src/man/entity.c:216: void sys_entity_erase_object(char i){
                            503 ;	---------------------------------
                            504 ; Function sys_entity_erase_object
                            505 ; ---------------------------------
   013E                     506 _sys_entity_erase_object::
   013E CDr00r00      [17]  507 	call	___sdcc_enter_ix
                            508 ;/Users/casa/Desktop/MSX1-MSX2-ZX-asm-basic-watchmen/MSX2/C/src/man/entity.c:217: --num_objects;
   0141 21rCDr01      [10]  509 	ld	hl, #_num_objects+0
   0144 35            [11]  510 	dec	(hl)
                            511 ;/Users/casa/Desktop/MSX1-MSX2-ZX-asm-basic-watchmen/MSX2/C/src/man/entity.c:218: TEntity *object=&array_structs_objects[i];
   0145 DD 4E 04      [19]  512 	ld	c, 4 (ix)
   0148 06 00         [ 7]  513 	ld	b, #0x00
   014A 69            [ 4]  514 	ld	l, c
   014B 60            [ 4]  515 	ld	h, b
   014C 29            [11]  516 	add	hl, hl
   014D 29            [11]  517 	add	hl, hl
   014E 09            [11]  518 	add	hl, bc
   014F 29            [11]  519 	add	hl, hl
   0150 09            [11]  520 	add	hl, bc
   0151 29            [11]  521 	add	hl, hl
   0152 09            [11]  522 	add	hl, bc
   0153 EB            [ 4]  523 	ex	de, hl
   0154 21rE6r00      [10]  524 	ld	hl, #_array_structs_objects
   0157 19            [11]  525 	add	hl, de
   0158 EB            [ 4]  526 	ex	de, hl
   0159 6B            [ 4]  527 	ld	l, e
   015A 62            [ 4]  528 	ld	h, d
                            529 ;/Users/casa/Desktop/MSX1-MSX2-ZX-asm-basic-watchmen/MSX2/C/src/man/entity.c:219: PutSprite(object->plane, object_money_pattern, 0,212,0 );
   015B 01 11 00      [10]  530 	ld	bc, #0x0011
   015E 09            [11]  531 	add	hl, bc
   015F 46            [ 7]  532 	ld	b, (hl)
   0160 D5            [11]  533 	push	de
   0161 AF            [ 4]  534 	xor	a, a
   0162 57            [ 4]  535 	ld	d,a
   0163 1E D4         [ 7]  536 	ld	e,#0xd4
   0165 D5            [11]  537 	push	de
   0166 AF            [ 4]  538 	xor	a, a
   0167 57            [ 4]  539 	ld	d,a
   0168 1E 30         [ 7]  540 	ld	e,#0x30
   016A D5            [11]  541 	push	de
   016B C5            [11]  542 	push	bc
   016C 33            [ 6]  543 	inc	sp
   016D CDr00r00      [17]  544 	call	_PutSprite
   0170 F1            [10]  545 	pop	af
   0171 F1            [10]  546 	pop	af
   0172 33            [ 6]  547 	inc	sp
   0173 D1            [10]  548 	pop	de
                            549 ;/Users/casa/Desktop/MSX1-MSX2-ZX-asm-basic-watchmen/MSX2/C/src/man/entity.c:221: memcpy(&array_structs_objects[i],&array_structs_objects[num_objects],sizeof(TEntity));
   0174 ED 4BrCDr01   [20]  550 	ld	bc, (_num_objects)
   0178 06 00         [ 7]  551 	ld	b, #0x00
   017A 69            [ 4]  552 	ld	l, c
   017B 60            [ 4]  553 	ld	h, b
   017C 29            [11]  554 	add	hl, hl
   017D 29            [11]  555 	add	hl, hl
   017E 09            [11]  556 	add	hl, bc
   017F 29            [11]  557 	add	hl, hl
   0180 09            [11]  558 	add	hl, bc
   0181 29            [11]  559 	add	hl, hl
   0182 09            [11]  560 	add	hl, bc
   0183 01rE6r00      [10]  561 	ld	bc, #_array_structs_objects
   0186 09            [11]  562 	add	hl, bc
   0187 01 17 00      [10]  563 	ld	bc, #0x0017
   018A ED B0         [21]  564 	ldir
                            565 ;/Users/casa/Desktop/MSX1-MSX2-ZX-asm-basic-watchmen/MSX2/C/src/man/entity.c:222: }
   018C DD E1         [14]  566 	pop	ix
   018E C9            [10]  567 	ret
                            568 ;/Users/casa/Desktop/MSX1-MSX2-ZX-asm-basic-watchmen/MSX2/C/src/man/entity.c:223: void sys_entity_erase_all_objects(){
                            569 ;	---------------------------------
                            570 ; Function sys_entity_erase_all_objects
                            571 ; ---------------------------------
   018F                     572 _sys_entity_erase_all_objects::
                            573 ;/Users/casa/Desktop/MSX1-MSX2-ZX-asm-basic-watchmen/MSX2/C/src/man/entity.c:224: for (char i=0;i<sys_entity_get_num_objects();++i){
   018F 06 00         [ 7]  574 	ld	b, #0x00
   0191                     575 00103$:
   0191 C5            [11]  576 	push	bc
   0192 CDrB4r01      [17]  577 	call	_sys_entity_get_num_objects
   0195 C1            [10]  578 	pop	bc
   0196 78            [ 4]  579 	ld	a, b
   0197 95            [ 4]  580 	sub	a, l
   0198 D0            [11]  581 	ret	NC
                            582 ;/Users/casa/Desktop/MSX1-MSX2-ZX-asm-basic-watchmen/MSX2/C/src/man/entity.c:225: sys_entity_erase_object(i);
   0199 C5            [11]  583 	push	bc
   019A C5            [11]  584 	push	bc
   019B 33            [ 6]  585 	inc	sp
   019C CDr3Er01      [17]  586 	call	_sys_entity_erase_object
   019F 33            [ 6]  587 	inc	sp
   01A0 C1            [10]  588 	pop	bc
                            589 ;/Users/casa/Desktop/MSX1-MSX2-ZX-asm-basic-watchmen/MSX2/C/src/man/entity.c:224: for (char i=0;i<sys_entity_get_num_objects();++i){
   01A1 04            [ 4]  590 	inc	b
                            591 ;/Users/casa/Desktop/MSX1-MSX2-ZX-asm-basic-watchmen/MSX2/C/src/man/entity.c:227: }  
   01A2 18 ED         [12]  592 	jr	00103$
                            593 ;/Users/casa/Desktop/MSX1-MSX2-ZX-asm-basic-watchmen/MSX2/C/src/man/entity.c:231: TEntity* sys_entity_get_array_structs_enemies(){
                            594 ;	---------------------------------
                            595 ; Function sys_entity_get_array_structs_enemies
                            596 ; ---------------------------------
   01A4                     597 _sys_entity_get_array_structs_enemies::
                            598 ;/Users/casa/Desktop/MSX1-MSX2-ZX-asm-basic-watchmen/MSX2/C/src/man/entity.c:232: return array_structs_enemies;
   01A4 21r00r00      [10]  599 	ld	hl, #_array_structs_enemies
                            600 ;/Users/casa/Desktop/MSX1-MSX2-ZX-asm-basic-watchmen/MSX2/C/src/man/entity.c:233: }
   01A7 C9            [10]  601 	ret
                            602 ;/Users/casa/Desktop/MSX1-MSX2-ZX-asm-basic-watchmen/MSX2/C/src/man/entity.c:239: TEntity* sys_entity_get_array_structs_objects(){
                            603 ;	---------------------------------
                            604 ; Function sys_entity_get_array_structs_objects
                            605 ; ---------------------------------
   01A8                     606 _sys_entity_get_array_structs_objects::
                            607 ;/Users/casa/Desktop/MSX1-MSX2-ZX-asm-basic-watchmen/MSX2/C/src/man/entity.c:240: return array_structs_objects;
   01A8 21rE6r00      [10]  608 	ld	hl, #_array_structs_objects
                            609 ;/Users/casa/Desktop/MSX1-MSX2-ZX-asm-basic-watchmen/MSX2/C/src/man/entity.c:241: }
   01AB C9            [10]  610 	ret
                            611 ;/Users/casa/Desktop/MSX1-MSX2-ZX-asm-basic-watchmen/MSX2/C/src/man/entity.c:244: char sys_entity_get_num_enemies(){
                            612 ;	---------------------------------
                            613 ; Function sys_entity_get_num_enemies
                            614 ; ---------------------------------
   01AC                     615 _sys_entity_get_num_enemies::
                            616 ;/Users/casa/Desktop/MSX1-MSX2-ZX-asm-basic-watchmen/MSX2/C/src/man/entity.c:245: return num_enemies;
   01AC FD 21rCCr01   [14]  617 	ld	iy, #_num_enemies
   01B0 FD 6E 00      [19]  618 	ld	l, 0 (iy)
                            619 ;/Users/casa/Desktop/MSX1-MSX2-ZX-asm-basic-watchmen/MSX2/C/src/man/entity.c:246: }
   01B3 C9            [10]  620 	ret
                            621 ;/Users/casa/Desktop/MSX1-MSX2-ZX-asm-basic-watchmen/MSX2/C/src/man/entity.c:252: char sys_entity_get_num_objects(){
                            622 ;	---------------------------------
                            623 ; Function sys_entity_get_num_objects
                            624 ; ---------------------------------
   01B4                     625 _sys_entity_get_num_objects::
                            626 ;/Users/casa/Desktop/MSX1-MSX2-ZX-asm-basic-watchmen/MSX2/C/src/man/entity.c:253: return num_objects;
   01B4 FD 21rCDr01   [14]  627 	ld	iy, #_num_objects
   01B8 FD 6E 00      [19]  628 	ld	l, 0 (iy)
                            629 ;/Users/casa/Desktop/MSX1-MSX2-ZX-asm-basic-watchmen/MSX2/C/src/man/entity.c:254: }
   01BB C9            [10]  630 	ret
                            631 ;/Users/casa/Desktop/MSX1-MSX2-ZX-asm-basic-watchmen/MSX2/C/src/man/entity.c:257: char sys_entity_get_max_enemies(){
                            632 ;	---------------------------------
                            633 ; Function sys_entity_get_max_enemies
                            634 ; ---------------------------------
   01BC                     635 _sys_entity_get_max_enemies::
                            636 ;/Users/casa/Desktop/MSX1-MSX2-ZX-asm-basic-watchmen/MSX2/C/src/man/entity.c:258: return MAX_enemies;
   01BC 2E 0A         [ 7]  637 	ld	l, #0x0a
                            638 ;/Users/casa/Desktop/MSX1-MSX2-ZX-asm-basic-watchmen/MSX2/C/src/man/entity.c:259: }
   01BE C9            [10]  639 	ret
                            640 ;/Users/casa/Desktop/MSX1-MSX2-ZX-asm-basic-watchmen/MSX2/C/src/man/entity.c:265: char sys_entity_get_max_objects(){
                            641 ;	---------------------------------
                            642 ; Function sys_entity_get_max_objects
                            643 ; ---------------------------------
   01BF                     644 _sys_entity_get_max_objects::
                            645 ;/Users/casa/Desktop/MSX1-MSX2-ZX-asm-basic-watchmen/MSX2/C/src/man/entity.c:266: return MAX_enemies;
   01BF 2E 0A         [ 7]  646 	ld	l, #0x0a
                            647 ;/Users/casa/Desktop/MSX1-MSX2-ZX-asm-basic-watchmen/MSX2/C/src/man/entity.c:267: }
   01C1 C9            [10]  648 	ret
                            649 ;/Users/casa/Desktop/MSX1-MSX2-ZX-asm-basic-watchmen/MSX2/C/./src/sys/anim.c:9: void sys_anim_init(){}
                            650 ;	---------------------------------
                            651 ; Function sys_anim_init
                            652 ; ---------------------------------
   01C2                     653 _sys_anim_init::
   01C2 C9            [10]  654 	ret
                            655 ;/Users/casa/Desktop/MSX1-MSX2-ZX-asm-basic-watchmen/MSX2/C/./src/sys/anim.c:10: void sys_anim_update(TEntity *entity){
                            656 ;	---------------------------------
                            657 ; Function sys_anim_update
                            658 ; ---------------------------------
   01C3                     659 _sys_anim_update::
                            660 ;/Users/casa/Desktop/MSX1-MSX2-ZX-asm-basic-watchmen/MSX2/C/./src/sys/anim.c:11: if (entity->andando==0){
   01C3 D1            [10]  661 	pop	de
   01C4 C1            [10]  662 	pop	bc
   01C5 C5            [11]  663 	push	bc
   01C6 D5            [11]  664 	push	de
   01C7 21 0D 00      [10]  665 	ld	hl, #0x000d
   01CA 09            [11]  666 	add	hl, bc
   01CB 7E            [ 7]  667 	ld	a, (hl)
   01CC B7            [ 4]  668 	or	a, a
   01CD 20 03         [12]  669 	jr	NZ,00102$
                            670 ;/Users/casa/Desktop/MSX1-MSX2-ZX-asm-basic-watchmen/MSX2/C/./src/sys/anim.c:12: entity->andando=1;
   01CF 36 01         [10]  671 	ld	(hl), #0x01
   01D1 C9            [10]  672 	ret
   01D2                     673 00102$:
                            674 ;/Users/casa/Desktop/MSX1-MSX2-ZX-asm-basic-watchmen/MSX2/C/./src/sys/anim.c:14: entity->andando=0;
   01D2 36 00         [10]  675 	ld	(hl), #0x00
                            676 ;/Users/casa/Desktop/MSX1-MSX2-ZX-asm-basic-watchmen/MSX2/C/./src/sys/anim.c:16: }
   01D4 C9            [10]  677 	ret
                            678 ;/Users/casa/Desktop/MSX1-MSX2-ZX-asm-basic-watchmen/MSX2/C/src/man/files.c:23: char* getBuffer(){
                            679 ;	---------------------------------
                            680 ; Function getBuffer
                            681 ; ---------------------------------
   01D5                     682 _getBuffer::
                            683 ;/Users/casa/Desktop/MSX1-MSX2-ZX-asm-basic-watchmen/MSX2/C/src/man/files.c:24: return &buffer[0];
   01D5 21rCEr01      [10]  684 	ld	hl, #_buffer
                            685 ;/Users/casa/Desktop/MSX1-MSX2-ZX-asm-basic-watchmen/MSX2/C/src/man/files.c:25: }
   01D8 C9            [10]  686 	ret
                            687 ;/Users/casa/Desktop/MSX1-MSX2-ZX-asm-basic-watchmen/MSX2/C/src/man/files.c:27: void load_file_into_buffer_with_structure(char *filename){
                            688 ;	---------------------------------
                            689 ; Function load_file_into_buffer_with_structure
                            690 ; ---------------------------------
   01D9                     691 _load_file_into_buffer_with_structure::
   01D9 CDr00r00      [17]  692 	call	___sdcc_enter_ix
   01DC 21 DB FF      [10]  693 	ld	hl, #-37
   01DF 39            [11]  694 	add	hl, sp
   01E0 F9            [ 6]  695 	ld	sp, hl
                            696 ;/Users/casa/Desktop/MSX1-MSX2-ZX-asm-basic-watchmen/MSX2/C/src/man/files.c:30: enter_name_and_extension_in_structure(&struct_fcb, filename);
   01E1 21 00 00      [10]  697 	ld	hl, #0
   01E4 39            [11]  698 	add	hl, sp
   01E5 EB            [ 4]  699 	ex	de, hl
   01E6 4B            [ 4]  700 	ld	c, e
   01E7 42            [ 4]  701 	ld	b, d
   01E8 D5            [11]  702 	push	de
   01E9 DD 6E 04      [19]  703 	ld	l, 4 (ix)
   01EC DD 66 05      [19]  704 	ld	h, 5 (ix)
   01EF E5            [11]  705 	push	hl
   01F0 C5            [11]  706 	push	bc
   01F1 CDr6Ar02      [17]  707 	call	_enter_name_and_extension_in_structure
   01F4 F1            [10]  708 	pop	af
   01F5 F1            [10]  709 	pop	af
   01F6 D1            [10]  710 	pop	de
                            711 ;/Users/casa/Desktop/MSX1-MSX2-ZX-asm-basic-watchmen/MSX2/C/src/man/files.c:31: fcb_open(&struct_fcb);
   01F7 4B            [ 4]  712 	ld	c, e
   01F8 42            [ 4]  713 	ld	b, d
   01F9 D5            [11]  714 	push	de
   01FA C5            [11]  715 	push	bc
   01FB CDr00r00      [17]  716 	call	_fcb_open
   01FE F1            [10]  717 	pop	af
   01FF D1            [10]  718 	pop	de
                            719 ;/Users/casa/Desktop/MSX1-MSX2-ZX-asm-basic-watchmen/MSX2/C/src/man/files.c:33: fcb_read( &struct_fcb, &buffer[0], 8 ); 
   0200 4B            [ 4]  720 	ld	c, e
   0201 42            [ 4]  721 	ld	b, d
   0202 D5            [11]  722 	push	de
   0203 21 08 00      [10]  723 	ld	hl, #0x0008
   0206 E5            [11]  724 	push	hl
   0207 21rCEr01      [10]  725 	ld	hl, #_buffer
   020A E5            [11]  726 	push	hl
   020B C5            [11]  727 	push	bc
   020C CDr00r00      [17]  728 	call	_fcb_read
   020F F1            [10]  729 	pop	af
   0210 F1            [10]  730 	pop	af
   0211 F1            [10]  731 	pop	af
   0212 D1            [10]  732 	pop	de
                            733 ;/Users/casa/Desktop/MSX1-MSX2-ZX-asm-basic-watchmen/MSX2/C/src/man/files.c:35: fcb_read( &struct_fcb, &buffer[0], BUFFER_SIZE );  
   0213 4B            [ 4]  734 	ld	c, e
   0214 42            [ 4]  735 	ld	b, d
   0215 D5            [11]  736 	push	de
   0216 21 06 6A      [10]  737 	ld	hl, #0x6a06
   0219 E5            [11]  738 	push	hl
   021A 21rCEr01      [10]  739 	ld	hl, #_buffer
   021D E5            [11]  740 	push	hl
   021E C5            [11]  741 	push	bc
   021F CDr00r00      [17]  742 	call	_fcb_read
   0222 F1            [10]  743 	pop	af
   0223 F1            [10]  744 	pop	af
   0224 F1            [10]  745 	pop	af
   0225 CDr00r00      [17]  746 	call	_fcb_close
                            747 ;/Users/casa/Desktop/MSX1-MSX2-ZX-asm-basic-watchmen/MSX2/C/src/man/files.c:37: }
   0228 DD F9         [10]  748 	ld	sp,ix
   022A DD E1         [14]  749 	pop	ix
   022C C9            [10]  750 	ret
                            751 ;/Users/casa/Desktop/MSX1-MSX2-ZX-asm-basic-watchmen/MSX2/C/src/man/files.c:39: void load_file_into_buffer(char *filename) {
                            752 ;	---------------------------------
                            753 ; Function load_file_into_buffer
                            754 ; ---------------------------------
   022D                     755 _load_file_into_buffer::
   022D CDr00r00      [17]  756 	call	___sdcc_enter_ix
                            757 ;/Users/casa/Desktop/MSX1-MSX2-ZX-asm-basic-watchmen/MSX2/C/src/man/files.c:42: file=Open(filename, O_RDONLY);
   0230 21 00 00      [10]  758 	ld	hl, #0x0000
   0233 E5            [11]  759 	push	hl
   0234 DD 6E 04      [19]  760 	ld	l, 4 (ix)
   0237 DD 66 05      [19]  761 	ld	h, 5 (ix)
   023A E5            [11]  762 	push	hl
   023B CDr00r00      [17]  763 	call	_Open
   023E F1            [10]  764 	pop	af
   023F F1            [10]  765 	pop	af
   0240 4D            [ 4]  766 	ld	c, l
   0241 44            [ 4]  767 	ld	b, h
                            768 ;/Users/casa/Desktop/MSX1-MSX2-ZX-asm-basic-watchmen/MSX2/C/src/man/files.c:45: Read(file, buffer, 7);	
   0242 C5            [11]  769 	push	bc
   0243 21 07 00      [10]  770 	ld	hl, #0x0007
   0246 E5            [11]  771 	push	hl
   0247 21rCEr01      [10]  772 	ld	hl, #_buffer
   024A E5            [11]  773 	push	hl
   024B C5            [11]  774 	push	bc
   024C CDr00r00      [17]  775 	call	_Read
   024F F1            [10]  776 	pop	af
   0250 F1            [10]  777 	pop	af
   0251 F1            [10]  778 	pop	af
   0252 C1            [10]  779 	pop	bc
                            780 ;/Users/casa/Desktop/MSX1-MSX2-ZX-asm-basic-watchmen/MSX2/C/src/man/files.c:47: Read(file, buffer, BUFFER_SIZE);
   0253 C5            [11]  781 	push	bc
   0254 21 06 6A      [10]  782 	ld	hl, #0x6a06
   0257 E5            [11]  783 	push	hl
   0258 21rCEr01      [10]  784 	ld	hl, #_buffer
   025B E5            [11]  785 	push	hl
   025C C5            [11]  786 	push	bc
   025D CDr00r00      [17]  787 	call	_Read
   0260 F1            [10]  788 	pop	af
   0261 F1            [10]  789 	pop	af
   0262 F1            [10]  790 	pop	af
   0263 CDr00r00      [17]  791 	call	_Close
   0266 F1            [10]  792 	pop	af
                            793 ;/Users/casa/Desktop/MSX1-MSX2-ZX-asm-basic-watchmen/MSX2/C/src/man/files.c:50: }
   0267 DD E1         [14]  794 	pop	ix
   0269 C9            [10]  795 	ret
                            796 ;/Users/casa/Desktop/MSX1-MSX2-ZX-asm-basic-watchmen/MSX2/C/src/man/files.c:55: void enter_name_and_extension_in_structure(FCB *p_fcb, const char *p_name)  // Routine servant à vérifier le format du nom de fichier
                            797 ;	---------------------------------
                            798 ; Function enter_name_and_extension_in_structure
                            799 ; ---------------------------------
   026A                     800 _enter_name_and_extension_in_structure::
   026A CDr00r00      [17]  801 	call	___sdcc_enter_ix
   026D F5            [11]  802 	push	af
   026E F5            [11]  803 	push	af
   026F 3B            [ 6]  804 	dec	sp
                            805 ;/Users/casa/Desktop/MSX1-MSX2-ZX-asm-basic-watchmen/MSX2/C/src/man/files.c:58: memset( p_fcb, 0, sizeof(FCB) );
   0270 DD 6E 04      [19]  806 	ld	l, 4 (ix)
   0273 DD 66 05      [19]  807 	ld	h, 5 (ix)
   0276 06 25         [ 7]  808 	ld	b, #0x25
   0278                     809 00178$:
   0278 36 00         [10]  810 	ld	(hl), #0x00
   027A 23            [ 6]  811 	inc	hl
   027B 10 FB         [13]  812 	djnz	00178$
                            813 ;/Users/casa/Desktop/MSX1-MSX2-ZX-asm-basic-watchmen/MSX2/C/src/man/files.c:59: for( i = 0; i < 11; i++ ) {
   027D DD 5E 04      [19]  814 	ld	e, 4 (ix)
   0280 DD 56 05      [19]  815 	ld	d, 5 (ix)
   0283 21 01 00      [10]  816 	ld	hl, #0x0001
   0286 19            [11]  817 	add	hl, de
   0287 DD 75 FC      [19]  818 	ld	-4 (ix), l
   028A DD 74 FD      [19]  819 	ld	-3 (ix), h
   028D 0E 00         [ 7]  820 	ld	c, #0x00
   028F                     821 00106$:
                            822 ;/Users/casa/Desktop/MSX1-MSX2-ZX-asm-basic-watchmen/MSX2/C/src/man/files.c:60: p_fcb->name[i] = ' ';
   028F DD 6E FC      [19]  823 	ld	l, -4 (ix)
   0292 DD 66 FD      [19]  824 	ld	h, -3 (ix)
   0295 06 00         [ 7]  825 	ld	b, #0x00
   0297 09            [11]  826 	add	hl, bc
   0298 36 20         [10]  827 	ld	(hl), #0x20
                            828 ;/Users/casa/Desktop/MSX1-MSX2-ZX-asm-basic-watchmen/MSX2/C/src/man/files.c:59: for( i = 0; i < 11; i++ ) {
   029A 0C            [ 4]  829 	inc	c
   029B 79            [ 4]  830 	ld	a, c
   029C D6 0B         [ 7]  831 	sub	a, #0x0b
   029E 38 EF         [12]  832 	jr	C,00106$
                            833 ;/Users/casa/Desktop/MSX1-MSX2-ZX-asm-basic-watchmen/MSX2/C/src/man/files.c:62: for( i = 0; (i < 8) && (p_name[i] != 0) && (p_name[i] != '.'); i++ ) {
   02A0 AF            [ 4]  834 	xor	a, a
   02A1 DD 77 FE      [19]  835 	ld	-2 (ix), a
   02A4                     836 00111$:
   02A4 DD 7E 06      [19]  837 	ld	a, 6 (ix)
   02A7 DD 86 FE      [19]  838 	add	a, -2 (ix)
   02AA 6F            [ 4]  839 	ld	l, a
   02AB DD 7E 07      [19]  840 	ld	a, 7 (ix)
   02AE CE 00         [ 7]  841 	adc	a, #0x00
   02B0 67            [ 4]  842 	ld	h, a
   02B1 DD 7E FE      [19]  843 	ld	a, -2 (ix)
   02B4 3C            [ 4]  844 	inc	a
   02B5 DD 77 FF      [19]  845 	ld	-1 (ix), a
   02B8 4E            [ 7]  846 	ld	c, (hl)
   02B9 79            [ 4]  847 	ld	a, c
   02BA D6 2E         [ 7]  848 	sub	a, #0x2e
   02BC 3E 01         [ 7]  849 	ld	a, #0x01
   02BE 28 01         [12]  850 	jr	Z,00181$
   02C0 AF            [ 4]  851 	xor	a, a
   02C1                     852 00181$:
   02C1 6F            [ 4]  853 	ld	l, a
   02C2 DD 7E FE      [19]  854 	ld	a, -2 (ix)
   02C5 D6 08         [ 7]  855 	sub	a, #0x08
   02C7 30 1E         [12]  856 	jr	NC,00102$
   02C9 79            [ 4]  857 	ld	a, c
   02CA B7            [ 4]  858 	or	a, a
   02CB 28 1A         [12]  859 	jr	Z,00102$
   02CD CB 45         [ 8]  860 	bit	0, l
   02CF 20 16         [12]  861 	jr	NZ,00102$
                            862 ;/Users/casa/Desktop/MSX1-MSX2-ZX-asm-basic-watchmen/MSX2/C/src/man/files.c:63: p_fcb->name[i] =  p_name[i];
   02D1 DD 7E FC      [19]  863 	ld	a, -4 (ix)
   02D4 DD 86 FE      [19]  864 	add	a, -2 (ix)
   02D7 6F            [ 4]  865 	ld	l, a
   02D8 DD 7E FD      [19]  866 	ld	a, -3 (ix)
   02DB CE 00         [ 7]  867 	adc	a, #0x00
   02DD 67            [ 4]  868 	ld	h, a
   02DE 71            [ 7]  869 	ld	(hl), c
                            870 ;/Users/casa/Desktop/MSX1-MSX2-ZX-asm-basic-watchmen/MSX2/C/src/man/files.c:62: for( i = 0; (i < 8) && (p_name[i] != 0) && (p_name[i] != '.'); i++ ) {
   02DF DD 7E FF      [19]  871 	ld	a, -1 (ix)
   02E2 DD 77 FE      [19]  872 	ld	-2 (ix), a
   02E5 18 BD         [12]  873 	jr	00111$
   02E7                     874 00102$:
                            875 ;/Users/casa/Desktop/MSX1-MSX2-ZX-asm-basic-watchmen/MSX2/C/src/man/files.c:65: if( p_name[i] == '.' ) {
   02E7 7D            [ 4]  876 	ld	a, l
   02E8 B7            [ 4]  877 	or	a, a
   02E9 28 4C         [12]  878 	jr	Z,00118$
                            879 ;/Users/casa/Desktop/MSX1-MSX2-ZX-asm-basic-watchmen/MSX2/C/src/man/files.c:66: i++;
   02EB DD 7E FF      [19]  880 	ld	a, -1 (ix)
   02EE DD 77 FB      [19]  881 	ld	-5 (ix), a
                            882 ;/Users/casa/Desktop/MSX1-MSX2-ZX-asm-basic-watchmen/MSX2/C/src/man/files.c:67: for( j = 0; (j < 3) && (p_name[i + j] != 0) && (p_name[i + j] != '.'); j++ ) {
   02F1 21 09 00      [10]  883 	ld	hl, #0x0009
   02F4 19            [11]  884 	add	hl, de
   02F5 EB            [ 4]  885 	ex	de, hl
   02F6 0E 00         [ 7]  886 	ld	c, #0x00
   02F8                     887 00116$:
   02F8 79            [ 4]  888 	ld	a, c
   02F9 D6 03         [ 7]  889 	sub	a, #0x03
   02FB 30 3A         [12]  890 	jr	NC,00118$
   02FD DD 6E FB      [19]  891 	ld	l, -5 (ix)
   0300 26 00         [ 7]  892 	ld	h, #0x00
   0302 DD 71 FC      [19]  893 	ld	-4 (ix), c
   0305 AF            [ 4]  894 	xor	a, a
   0306 DD 77 FD      [19]  895 	ld	-3 (ix), a
   0309 7D            [ 4]  896 	ld	a, l
   030A DD 86 FC      [19]  897 	add	a, -4 (ix)
   030D DD 77 FE      [19]  898 	ld	-2 (ix), a
   0310 7C            [ 4]  899 	ld	a, h
   0311 DD 8E FD      [19]  900 	adc	a, -3 (ix)
   0314 DD 77 FF      [19]  901 	ld	-1 (ix), a
   0317 DD 7E 06      [19]  902 	ld	a, 6 (ix)
   031A DD 86 FE      [19]  903 	add	a, -2 (ix)
   031D 6F            [ 4]  904 	ld	l, a
   031E DD 7E 07      [19]  905 	ld	a, 7 (ix)
   0321 DD 8E FF      [19]  906 	adc	a, -1 (ix)
   0324 67            [ 4]  907 	ld	h, a
   0325 46            [ 7]  908 	ld	b, (hl)
   0326 78            [ 4]  909 	ld	a, b
   0327 B7            [ 4]  910 	or	a, a
   0328 28 0D         [12]  911 	jr	Z,00118$
   032A 78            [ 4]  912 	ld	a, b
   032B D6 2E         [ 7]  913 	sub	a, #0x2e
   032D 28 08         [12]  914 	jr	Z,00118$
                            915 ;/Users/casa/Desktop/MSX1-MSX2-ZX-asm-basic-watchmen/MSX2/C/src/man/files.c:68: p_fcb->ext[j] =  p_name[i + j] ;
   032F 69            [ 4]  916 	ld	l, c
   0330 26 00         [ 7]  917 	ld	h, #0x00
   0332 19            [11]  918 	add	hl, de
   0333 70            [ 7]  919 	ld	(hl), b
                            920 ;/Users/casa/Desktop/MSX1-MSX2-ZX-asm-basic-watchmen/MSX2/C/src/man/files.c:67: for( j = 0; (j < 3) && (p_name[i + j] != 0) && (p_name[i + j] != '.'); j++ ) {
   0334 0C            [ 4]  921 	inc	c
   0335 18 C1         [12]  922 	jr	00116$
   0337                     923 00118$:
                            924 ;/Users/casa/Desktop/MSX1-MSX2-ZX-asm-basic-watchmen/MSX2/C/src/man/files.c:71: }
   0337 DD F9         [10]  925 	ld	sp, ix
   0339 DD E1         [14]  926 	pop	ix
   033B C9            [10]  927 	ret
                            928 ;/Users/casa/Desktop/MSX1-MSX2-ZX-asm-basic-watchmen/MSX2/C/./src/sys/collider.c:23: void sys_collider_init(){
                            929 ;	---------------------------------
                            930 ; Function sys_collider_init
                            931 ; ---------------------------------
   033C                     932 _sys_collider_init::
                            933 ;/Users/casa/Desktop/MSX1-MSX2-ZX-asm-basic-watchmen/MSX2/C/./src/sys/collider.c:24: bufferDir=getBuffer();
   033C CDrD5r01      [17]  934 	call	_getBuffer
   033F 22rD4r6B      [16]  935 	ld	(_bufferDir), hl
                            936 ;/Users/casa/Desktop/MSX1-MSX2-ZX-asm-basic-watchmen/MSX2/C/./src/sys/collider.c:25: }
   0342 C9            [10]  937 	ret
                            938 ;/Users/casa/Desktop/MSX1-MSX2-ZX-asm-basic-watchmen/MSX2/C/./src/sys/collider.c:27: int sys_collider_get_column_entity(TEntity *entity){
                            939 ;	---------------------------------
                            940 ; Function sys_collider_get_column_entity
                            941 ; ---------------------------------
   0343                     942 _sys_collider_get_column_entity::
   0343 CDr00r00      [17]  943 	call	___sdcc_enter_ix
                            944 ;/Users/casa/Desktop/MSX1-MSX2-ZX-asm-basic-watchmen/MSX2/C/./src/sys/collider.c:30: return ((entity->x+6)/8);
   0346 DD 6E 04      [19]  945 	ld	l, 4 (ix)
   0349 DD 66 05      [19]  946 	ld	h, 5 (ix)
   034C 23            [ 6]  947 	inc	hl
   034D 23            [ 6]  948 	inc	hl
   034E 4E            [ 7]  949 	ld	c, (hl)
   034F 23            [ 6]  950 	inc	hl
   0350 46            [ 7]  951 	ld	b, (hl)
   0351 21 06 00      [10]  952 	ld	hl, #0x0006
   0354 09            [11]  953 	add	hl, bc
   0355 EB            [ 4]  954 	ex	de, hl
   0356 6B            [ 4]  955 	ld	l, e
   0357 62            [ 4]  956 	ld	h, d
   0358 CB 7A         [ 8]  957 	bit	7, d
   035A 28 04         [12]  958 	jr	Z,00103$
   035C 21 0D 00      [10]  959 	ld	hl, #0x000d
   035F 09            [11]  960 	add	hl, bc
   0360                     961 00103$:
   0360 06 03         [ 7]  962 	ld	b, #0x03
   0362                     963 00109$:
   0362 CB 2C         [ 8]  964 	sra	h
   0364 CB 1D         [ 8]  965 	rr	l
   0366 10 FA         [13]  966 	djnz	00109$
                            967 ;/Users/casa/Desktop/MSX1-MSX2-ZX-asm-basic-watchmen/MSX2/C/./src/sys/collider.c:31: }
   0368 DD E1         [14]  968 	pop	ix
   036A C9            [10]  969 	ret
                            970 ;/Users/casa/Desktop/MSX1-MSX2-ZX-asm-basic-watchmen/MSX2/C/./src/sys/collider.c:32: int sys_collider_get_file_entity(TEntity *entity){
                            971 ;	---------------------------------
                            972 ; Function sys_collider_get_file_entity
                            973 ; ---------------------------------
   036B                     974 _sys_collider_get_file_entity::
                            975 ;/Users/casa/Desktop/MSX1-MSX2-ZX-asm-basic-watchmen/MSX2/C/./src/sys/collider.c:34: return (entity->y/8);
   036B C1            [10]  976 	pop	bc
   036C E1            [10]  977 	pop	hl
   036D E5            [11]  978 	push	hl
   036E C5            [11]  979 	push	bc
   036F 11 04 00      [10]  980 	ld	de, #0x0004
   0372 19            [11]  981 	add	hl, de
   0373 4E            [ 7]  982 	ld	c, (hl)
   0374 23            [ 6]  983 	inc	hl
   0375 46            [ 7]  984 	ld	b, (hl)
   0376 69            [ 4]  985 	ld	l, c
   0377 60            [ 4]  986 	ld	h, b
   0378 CB 78         [ 8]  987 	bit	7, b
   037A 28 04         [12]  988 	jr	Z,00103$
   037C 21 07 00      [10]  989 	ld	hl, #0x0007
   037F 09            [11]  990 	add	hl, bc
   0380                     991 00103$:
   0380 06 03         [ 7]  992 	ld	b, #0x03
   0382                     993 00109$:
   0382 CB 2C         [ 8]  994 	sra	h
   0384 CB 1D         [ 8]  995 	rr	l
   0386 10 FA         [13]  996 	djnz	00109$
                            997 ;/Users/casa/Desktop/MSX1-MSX2-ZX-asm-basic-watchmen/MSX2/C/./src/sys/collider.c:35: }
   0388 C9            [10]  998 	ret
                            999 ;/Users/casa/Desktop/MSX1-MSX2-ZX-asm-basic-watchmen/MSX2/C/./src/sys/collider.c:36: int sys_collider_get_tile_array(TEntity *entity){
                           1000 ;	---------------------------------
                           1001 ; Function sys_collider_get_tile_array
                           1002 ; ---------------------------------
   0389                    1003 _sys_collider_get_tile_array::
   0389 CDr00r00      [17] 1004 	call	___sdcc_enter_ix
                           1005 ;/Users/casa/Desktop/MSX1-MSX2-ZX-asm-basic-watchmen/MSX2/C/./src/sys/collider.c:38: int tile_pie=buffer[((sys_collider_get_file_entity(entity)+1)*32)+(sys_collider_get_column_entity(entity))];
   038C DD 6E 04      [19] 1006 	ld	l, 4 (ix)
   038F DD 66 05      [19] 1007 	ld	h, 5 (ix)
   0392 E5            [11] 1008 	push	hl
   0393 CDr6Br03      [17] 1009 	call	_sys_collider_get_file_entity
   0396 F1            [10] 1010 	pop	af
   0397 23            [ 6] 1011 	inc	hl
   0398 29            [11] 1012 	add	hl, hl
   0399 29            [11] 1013 	add	hl, hl
   039A 29            [11] 1014 	add	hl, hl
   039B 29            [11] 1015 	add	hl, hl
   039C 29            [11] 1016 	add	hl, hl
   039D E5            [11] 1017 	push	hl
   039E DD 6E 04      [19] 1018 	ld	l, 4 (ix)
   03A1 DD 66 05      [19] 1019 	ld	h, 5 (ix)
   03A4 E5            [11] 1020 	push	hl
   03A5 CDr43r03      [17] 1021 	call	_sys_collider_get_column_entity
   03A8 F1            [10] 1022 	pop	af
   03A9 C1            [10] 1023 	pop	bc
   03AA 09            [11] 1024 	add	hl, bc
   03AB 11rCEr01      [10] 1025 	ld	de, #_buffer
   03AE 19            [11] 1026 	add	hl, de
   03AF 6E            [ 7] 1027 	ld	l, (hl)
   03B0 26 00         [ 7] 1028 	ld	h, #0x00
                           1029 ;/Users/casa/Desktop/MSX1-MSX2-ZX-asm-basic-watchmen/MSX2/C/./src/sys/collider.c:39: return tile_pie;
                           1030 ;/Users/casa/Desktop/MSX1-MSX2-ZX-asm-basic-watchmen/MSX2/C/./src/sys/collider.c:40: }
   03B2 DD E1         [14] 1031 	pop	ix
   03B4 C9            [10] 1032 	ret
                           1033 ;/Users/casa/Desktop/MSX1-MSX2-ZX-asm-basic-watchmen/MSX2/C/./src/sys/collider.c:41: int sys_collider_get_tile_down_array(TEntity *entity){
                           1034 ;	---------------------------------
                           1035 ; Function sys_collider_get_tile_down_array
                           1036 ; ---------------------------------
   03B5                    1037 _sys_collider_get_tile_down_array::
   03B5 CDr00r00      [17] 1038 	call	___sdcc_enter_ix
                           1039 ;/Users/casa/Desktop/MSX1-MSX2-ZX-asm-basic-watchmen/MSX2/C/./src/sys/collider.c:43: int tile_abajo=buffer[((sys_collider_get_file_entity(entity)+2)*32)+(sys_collider_get_column_entity(entity))];
   03B8 DD 6E 04      [19] 1040 	ld	l, 4 (ix)
   03BB DD 66 05      [19] 1041 	ld	h, 5 (ix)
   03BE E5            [11] 1042 	push	hl
   03BF CDr6Br03      [17] 1043 	call	_sys_collider_get_file_entity
   03C2 F1            [10] 1044 	pop	af
   03C3 23            [ 6] 1045 	inc	hl
   03C4 23            [ 6] 1046 	inc	hl
   03C5 29            [11] 1047 	add	hl, hl
   03C6 29            [11] 1048 	add	hl, hl
   03C7 29            [11] 1049 	add	hl, hl
   03C8 29            [11] 1050 	add	hl, hl
   03C9 29            [11] 1051 	add	hl, hl
   03CA E5            [11] 1052 	push	hl
   03CB DD 6E 04      [19] 1053 	ld	l, 4 (ix)
   03CE DD 66 05      [19] 1054 	ld	h, 5 (ix)
   03D1 E5            [11] 1055 	push	hl
   03D2 CDr43r03      [17] 1056 	call	_sys_collider_get_column_entity
   03D5 F1            [10] 1057 	pop	af
   03D6 C1            [10] 1058 	pop	bc
   03D7 09            [11] 1059 	add	hl, bc
   03D8 11rCEr01      [10] 1060 	ld	de, #_buffer
   03DB 19            [11] 1061 	add	hl, de
   03DC 6E            [ 7] 1062 	ld	l, (hl)
   03DD 26 00         [ 7] 1063 	ld	h, #0x00
                           1064 ;/Users/casa/Desktop/MSX1-MSX2-ZX-asm-basic-watchmen/MSX2/C/./src/sys/collider.c:44: return tile_abajo; 
                           1065 ;/Users/casa/Desktop/MSX1-MSX2-ZX-asm-basic-watchmen/MSX2/C/./src/sys/collider.c:45: }
   03DF DD E1         [14] 1066 	pop	ix
   03E1 C9            [10] 1067 	ret
                           1068 ;/Users/casa/Desktop/MSX1-MSX2-ZX-asm-basic-watchmen/MSX2/C/./src/sys/collider.c:46: int sys_collider_get_tile_right_array(TEntity *entity){
                           1069 ;	---------------------------------
                           1070 ; Function sys_collider_get_tile_right_array
                           1071 ; ---------------------------------
   03E2                    1072 _sys_collider_get_tile_right_array::
   03E2 CDr00r00      [17] 1073 	call	___sdcc_enter_ix
                           1074 ;/Users/casa/Desktop/MSX1-MSX2-ZX-asm-basic-watchmen/MSX2/C/./src/sys/collider.c:48: int tile_abajo=buffer[((sys_collider_get_file_entity(entity)+1)*32)+(sys_collider_get_column_entity(entity)-1)];
   03E5 DD 6E 04      [19] 1075 	ld	l, 4 (ix)
   03E8 DD 66 05      [19] 1076 	ld	h, 5 (ix)
   03EB E5            [11] 1077 	push	hl
   03EC CDr6Br03      [17] 1078 	call	_sys_collider_get_file_entity
   03EF F1            [10] 1079 	pop	af
   03F0 23            [ 6] 1080 	inc	hl
   03F1 29            [11] 1081 	add	hl, hl
   03F2 29            [11] 1082 	add	hl, hl
   03F3 29            [11] 1083 	add	hl, hl
   03F4 29            [11] 1084 	add	hl, hl
   03F5 29            [11] 1085 	add	hl, hl
   03F6 E5            [11] 1086 	push	hl
   03F7 DD 6E 04      [19] 1087 	ld	l, 4 (ix)
   03FA DD 66 05      [19] 1088 	ld	h, 5 (ix)
   03FD E5            [11] 1089 	push	hl
   03FE CDr43r03      [17] 1090 	call	_sys_collider_get_column_entity
   0401 F1            [10] 1091 	pop	af
   0402 C1            [10] 1092 	pop	bc
   0403 2B            [ 6] 1093 	dec	hl
   0404 09            [11] 1094 	add	hl, bc
   0405 11rCEr01      [10] 1095 	ld	de, #_buffer
   0408 19            [11] 1096 	add	hl, de
   0409 6E            [ 7] 1097 	ld	l, (hl)
   040A 26 00         [ 7] 1098 	ld	h, #0x00
                           1099 ;/Users/casa/Desktop/MSX1-MSX2-ZX-asm-basic-watchmen/MSX2/C/./src/sys/collider.c:49: return tile_abajo; 
                           1100 ;/Users/casa/Desktop/MSX1-MSX2-ZX-asm-basic-watchmen/MSX2/C/./src/sys/collider.c:50: }
   040C DD E1         [14] 1101 	pop	ix
   040E C9            [10] 1102 	ret
                           1103 ;/Users/casa/Desktop/MSX1-MSX2-ZX-asm-basic-watchmen/MSX2/C/./src/sys/collider.c:51: int sys_collider_get_tile_left_array(TEntity *entity){
                           1104 ;	---------------------------------
                           1105 ; Function sys_collider_get_tile_left_array
                           1106 ; ---------------------------------
   040F                    1107 _sys_collider_get_tile_left_array::
   040F CDr00r00      [17] 1108 	call	___sdcc_enter_ix
                           1109 ;/Users/casa/Desktop/MSX1-MSX2-ZX-asm-basic-watchmen/MSX2/C/./src/sys/collider.c:53: int tile_abajo=buffer[((sys_collider_get_file_entity(entity)+2)*32)+(sys_collider_get_column_entity(entity)+2)];
   0412 DD 6E 04      [19] 1110 	ld	l, 4 (ix)
   0415 DD 66 05      [19] 1111 	ld	h, 5 (ix)
   0418 E5            [11] 1112 	push	hl
   0419 CDr6Br03      [17] 1113 	call	_sys_collider_get_file_entity
   041C F1            [10] 1114 	pop	af
   041D 23            [ 6] 1115 	inc	hl
   041E 23            [ 6] 1116 	inc	hl
   041F 29            [11] 1117 	add	hl, hl
   0420 29            [11] 1118 	add	hl, hl
   0421 29            [11] 1119 	add	hl, hl
   0422 29            [11] 1120 	add	hl, hl
   0423 29            [11] 1121 	add	hl, hl
   0424 E5            [11] 1122 	push	hl
   0425 DD 6E 04      [19] 1123 	ld	l, 4 (ix)
   0428 DD 66 05      [19] 1124 	ld	h, 5 (ix)
   042B E5            [11] 1125 	push	hl
   042C CDr43r03      [17] 1126 	call	_sys_collider_get_column_entity
   042F F1            [10] 1127 	pop	af
   0430 C1            [10] 1128 	pop	bc
   0431 23            [ 6] 1129 	inc	hl
   0432 23            [ 6] 1130 	inc	hl
   0433 09            [11] 1131 	add	hl, bc
   0434 11rCEr01      [10] 1132 	ld	de, #_buffer
   0437 19            [11] 1133 	add	hl, de
   0438 6E            [ 7] 1134 	ld	l, (hl)
   0439 26 00         [ 7] 1135 	ld	h, #0x00
                           1136 ;/Users/casa/Desktop/MSX1-MSX2-ZX-asm-basic-watchmen/MSX2/C/./src/sys/collider.c:54: return tile_abajo; 
                           1137 ;/Users/casa/Desktop/MSX1-MSX2-ZX-asm-basic-watchmen/MSX2/C/./src/sys/collider.c:55: }
   043B DD E1         [14] 1138 	pop	ix
   043D C9            [10] 1139 	ret
                           1140 ;/Users/casa/Desktop/MSX1-MSX2-ZX-asm-basic-watchmen/MSX2/C/./src/sys/collider.c:61: char sys_collider_entity1_collider_entity(TEntity *entity1, TEntity *entity2){
                           1141 ;	---------------------------------
                           1142 ; Function sys_collider_entity1_collider_entity
                           1143 ; ---------------------------------
   043E                    1144 _sys_collider_entity1_collider_entity::
   043E CDr00r00      [17] 1145 	call	___sdcc_enter_ix
   0441 F5            [11] 1146 	push	af
   0442 F5            [11] 1147 	push	af
                           1148 ;/Users/casa/Desktop/MSX1-MSX2-ZX-asm-basic-watchmen/MSX2/C/./src/sys/collider.c:63: if (entity2->x < entity1->x + 16 &&  entity2->x + 16 > entity1->x && entity2->y < entity1->y + 16 && 16 + entity2->y > entity1->y){
   0443 DD 7E 06      [19] 1149 	ld	a, 6 (ix)
   0446 DD 77 FC      [19] 1150 	ld	-4 (ix), a
   0449 DD 7E 07      [19] 1151 	ld	a, 7 (ix)
   044C DD 77 FD      [19] 1152 	ld	-3 (ix), a
   044F E1            [10] 1153 	pop	hl
   0450 E5            [11] 1154 	push	hl
   0451 23            [ 6] 1155 	inc	hl
   0452 23            [ 6] 1156 	inc	hl
   0453 4E            [ 7] 1157 	ld	c, (hl)
   0454 23            [ 6] 1158 	inc	hl
   0455 46            [ 7] 1159 	ld	b, (hl)
   0456 DD 7E 04      [19] 1160 	ld	a, 4 (ix)
   0459 DD 77 FE      [19] 1161 	ld	-2 (ix), a
   045C DD 7E 05      [19] 1162 	ld	a, 5 (ix)
   045F DD 77 FF      [19] 1163 	ld	-1 (ix), a
   0462 D1            [10] 1164 	pop	de
   0463 E1            [10] 1165 	pop	hl
   0464 E5            [11] 1166 	push	hl
   0465 D5            [11] 1167 	push	de
   0466 23            [ 6] 1168 	inc	hl
   0467 23            [ 6] 1169 	inc	hl
   0468 5E            [ 7] 1170 	ld	e, (hl)
   0469 23            [ 6] 1171 	inc	hl
   046A 56            [ 7] 1172 	ld	d, (hl)
   046B 21 10 00      [10] 1173 	ld	hl, #0x0010
   046E 19            [11] 1174 	add	hl, de
   046F 79            [ 4] 1175 	ld	a, c
   0470 95            [ 4] 1176 	sub	a, l
   0471 78            [ 4] 1177 	ld	a, b
   0472 9C            [ 4] 1178 	sbc	a, h
   0473 E2r78r04      [10] 1179 	jp	PO, 00129$
   0476 EE 80         [ 7] 1180 	xor	a, #0x80
   0478                    1181 00129$:
   0478 F2rC3r04      [10] 1182 	jp	P, 00102$
   047B 21 10 00      [10] 1183 	ld	hl, #0x0010
   047E 09            [11] 1184 	add	hl, bc
   047F 7B            [ 4] 1185 	ld	a, e
   0480 95            [ 4] 1186 	sub	a, l
   0481 7A            [ 4] 1187 	ld	a, d
   0482 9C            [ 4] 1188 	sbc	a, h
   0483 E2r88r04      [10] 1189 	jp	PO, 00130$
   0486 EE 80         [ 7] 1190 	xor	a, #0x80
   0488                    1191 00130$:
   0488 F2rC3r04      [10] 1192 	jp	P, 00102$
   048B E1            [10] 1193 	pop	hl
   048C E5            [11] 1194 	push	hl
   048D 11 04 00      [10] 1195 	ld	de, #0x0004
   0490 19            [11] 1196 	add	hl, de
   0491 5E            [ 7] 1197 	ld	e, (hl)
   0492 23            [ 6] 1198 	inc	hl
   0493 56            [ 7] 1199 	ld	d, (hl)
   0494 C1            [10] 1200 	pop	bc
   0495 E1            [10] 1201 	pop	hl
   0496 E5            [11] 1202 	push	hl
   0497 C5            [11] 1203 	push	bc
   0498 01 04 00      [10] 1204 	ld	bc, #0x0004
   049B 09            [11] 1205 	add	hl, bc
   049C 4E            [ 7] 1206 	ld	c, (hl)
   049D 23            [ 6] 1207 	inc	hl
   049E 46            [ 7] 1208 	ld	b, (hl)
   049F 21 10 00      [10] 1209 	ld	hl, #0x0010
   04A2 09            [11] 1210 	add	hl, bc
   04A3 7B            [ 4] 1211 	ld	a, e
   04A4 95            [ 4] 1212 	sub	a, l
   04A5 7A            [ 4] 1213 	ld	a, d
   04A6 9C            [ 4] 1214 	sbc	a, h
   04A7 E2rACr04      [10] 1215 	jp	PO, 00131$
   04AA EE 80         [ 7] 1216 	xor	a, #0x80
   04AC                    1217 00131$:
   04AC F2rC3r04      [10] 1218 	jp	P, 00102$
   04AF 21 10 00      [10] 1219 	ld	hl, #0x0010
   04B2 19            [11] 1220 	add	hl, de
   04B3 79            [ 4] 1221 	ld	a, c
   04B4 95            [ 4] 1222 	sub	a, l
   04B5 78            [ 4] 1223 	ld	a, b
   04B6 9C            [ 4] 1224 	sbc	a, h
   04B7 E2rBCr04      [10] 1225 	jp	PO, 00132$
   04BA EE 80         [ 7] 1226 	xor	a, #0x80
   04BC                    1227 00132$:
   04BC F2rC3r04      [10] 1228 	jp	P, 00102$
                           1229 ;/Users/casa/Desktop/MSX1-MSX2-ZX-asm-basic-watchmen/MSX2/C/./src/sys/collider.c:64: return 1;
   04BF 2E 01         [ 7] 1230 	ld	l, #0x01
   04C1 18 02         [12] 1231 	jr	00107$
   04C3                    1232 00102$:
                           1233 ;/Users/casa/Desktop/MSX1-MSX2-ZX-asm-basic-watchmen/MSX2/C/./src/sys/collider.c:66: return 0;
   04C3 2E 00         [ 7] 1234 	ld	l, #0x00
   04C5                    1235 00107$:
                           1236 ;/Users/casa/Desktop/MSX1-MSX2-ZX-asm-basic-watchmen/MSX2/C/./src/sys/collider.c:68: }
   04C5 DD F9         [10] 1237 	ld	sp, ix
   04C7 DD E1         [14] 1238 	pop	ix
   04C9 C9            [10] 1239 	ret
                           1240 ;/Users/casa/Desktop/MSX1-MSX2-ZX-asm-basic-watchmen/MSX2/C/src/sys/physics.c:22: void sys_physics_update(TEntity *entity){
                           1241 ;	---------------------------------
                           1242 ; Function sys_physics_update
                           1243 ; ---------------------------------
   04CA                    1244 _sys_physics_update::
   04CA CDr00r00      [17] 1245 	call	___sdcc_enter_ix
   04CD F5            [11] 1246 	push	af
   04CE F5            [11] 1247 	push	af
   04CF F5            [11] 1248 	push	af
   04D0 F5            [11] 1249 	push	af
                           1250 ;/Users/casa/Desktop/MSX1-MSX2-ZX-asm-basic-watchmen/MSX2/C/src/sys/physics.c:23: if (entity->type==entity_type_player){
   04D1 DD 4E 04      [19] 1251 	ld	c, 4 (ix)
   04D4 DD 46 05      [19] 1252 	ld	b, 5 (ix)
   04D7 0A            [ 7] 1253 	ld	a, (bc)
   04D8 3D            [ 4] 1254 	dec	a
   04D9 C2rE3r05      [10] 1255 	jp	NZ,00114$
                           1256 ;/Users/casa/Desktop/MSX1-MSX2-ZX-asm-basic-watchmen/MSX2/C/src/sys/physics.c:24: sys_physics_check_keyboard(entity);
   04DC C5            [11] 1257 	push	bc
   04DD C5            [11] 1258 	push	bc
   04DE CDrE8r05      [17] 1259 	call	_sys_physics_check_keyboard
   04E1 F1            [10] 1260 	pop	af
   04E2 C1            [10] 1261 	pop	bc
                           1262 ;/Users/casa/Desktop/MSX1-MSX2-ZX-asm-basic-watchmen/MSX2/C/src/sys/physics.c:26: if(entity->jump==1){
   04E3 21 0E 00      [10] 1263 	ld	hl, #0x000e
   04E6 09            [11] 1264 	add	hl, bc
   04E7 E3            [19] 1265 	ex	(sp), hl
   04E8 E1            [10] 1266 	pop	hl
   04E9 E5            [11] 1267 	push	hl
   04EA 6E            [ 7] 1268 	ld	l, (hl)
                           1269 ;/Users/casa/Desktop/MSX1-MSX2-ZX-asm-basic-watchmen/MSX2/C/src/sys/physics.c:27: entity->y+=entity->vy;
   04EB 79            [ 4] 1270 	ld	a, c
   04EC C6 04         [ 7] 1271 	add	a, #0x04
   04EE 5F            [ 4] 1272 	ld	e, a
   04EF 78            [ 4] 1273 	ld	a, b
   04F0 CE 00         [ 7] 1274 	adc	a, #0x00
   04F2 57            [ 4] 1275 	ld	d, a
   04F3 79            [ 4] 1276 	ld	a, c
   04F4 C6 0B         [ 7] 1277 	add	a, #0x0b
   04F6 DD 77 FA      [19] 1278 	ld	-6 (ix), a
   04F9 78            [ 4] 1279 	ld	a, b
   04FA CE 00         [ 7] 1280 	adc	a, #0x00
   04FC DD 77 FB      [19] 1281 	ld	-5 (ix), a
                           1282 ;/Users/casa/Desktop/MSX1-MSX2-ZX-asm-basic-watchmen/MSX2/C/src/sys/physics.c:26: if(entity->jump==1){
   04FF 2D            [ 4] 1283 	dec	l
   0500 20 65         [12] 1284 	jr	NZ,00104$
                           1285 ;/Users/casa/Desktop/MSX1-MSX2-ZX-asm-basic-watchmen/MSX2/C/src/sys/physics.c:27: entity->y+=entity->vy;
   0502 1A            [ 7] 1286 	ld	a, (de)
   0503 DD 77 FC      [19] 1287 	ld	-4 (ix), a
   0506 13            [ 6] 1288 	inc	de
   0507 1A            [ 7] 1289 	ld	a, (de)
   0508 DD 77 FD      [19] 1290 	ld	-3 (ix), a
   050B 1B            [ 6] 1291 	dec	de
   050C DD 6E FA      [19] 1292 	ld	l, -6 (ix)
   050F DD 66 FB      [19] 1293 	ld	h, -5 (ix)
   0512 7E            [ 7] 1294 	ld	a, (hl)
   0513 6F            [ 4] 1295 	ld	l, a
   0514 17            [ 4] 1296 	rla
   0515 9F            [ 4] 1297 	sbc	a, a
   0516 67            [ 4] 1298 	ld	h, a
   0517 7D            [ 4] 1299 	ld	a, l
   0518 DD 86 FC      [19] 1300 	add	a, -4 (ix)
   051B DD 77 FE      [19] 1301 	ld	-2 (ix), a
   051E 7C            [ 4] 1302 	ld	a, h
   051F DD 8E FD      [19] 1303 	adc	a, -3 (ix)
   0522 DD 77 FF      [19] 1304 	ld	-1 (ix), a
   0525 6B            [ 4] 1305 	ld	l, e
   0526 62            [ 4] 1306 	ld	h, d
   0527 DD 7E FE      [19] 1307 	ld	a, -2 (ix)
   052A 77            [ 7] 1308 	ld	(hl), a
   052B 23            [ 6] 1309 	inc	hl
   052C DD 7E FF      [19] 1310 	ld	a, -1 (ix)
   052F 77            [ 7] 1311 	ld	(hl), a
                           1312 ;/Users/casa/Desktop/MSX1-MSX2-ZX-asm-basic-watchmen/MSX2/C/src/sys/physics.c:28: if(entity->old_y-16>=entity->y){
   0530 69            [ 4] 1313 	ld	l, c
   0531 60            [ 4] 1314 	ld	h, b
   0532 C5            [11] 1315 	push	bc
   0533 01 07 00      [10] 1316 	ld	bc, #0x0007
   0536 09            [11] 1317 	add	hl, bc
   0537 C1            [10] 1318 	pop	bc
   0538 6E            [ 7] 1319 	ld	l, (hl)
   0539 26 00         [ 7] 1320 	ld	h, #0x00
   053B 7D            [ 4] 1321 	ld	a, l
   053C C6 F0         [ 7] 1322 	add	a, #0xf0
   053E 6F            [ 4] 1323 	ld	l, a
   053F 7C            [ 4] 1324 	ld	a, h
   0540 CE FF         [ 7] 1325 	adc	a, #0xff
   0542 67            [ 4] 1326 	ld	h, a
   0543 7D            [ 4] 1327 	ld	a, l
   0544 DD 96 FE      [19] 1328 	sub	a, -2 (ix)
   0547 7C            [ 4] 1329 	ld	a, h
   0548 DD 9E FF      [19] 1330 	sbc	a, -1 (ix)
   054B E2r50r05      [10] 1331 	jp	PO, 00150$
   054E EE 80         [ 7] 1332 	xor	a, #0x80
   0550                    1333 00150$:
   0550 FAr67r05      [10] 1334 	jp	M, 00104$
                           1335 ;/Users/casa/Desktop/MSX1-MSX2-ZX-asm-basic-watchmen/MSX2/C/src/sys/physics.c:29: entity->vy*=-1;
   0553 DD 6E FA      [19] 1336 	ld	l, -6 (ix)
   0556 DD 66 FB      [19] 1337 	ld	h, -5 (ix)
   0559 7E            [ 7] 1338 	ld	a, (hl)
   055A ED 44         [ 8] 1339 	neg
   055C DD 6E FA      [19] 1340 	ld	l, -6 (ix)
   055F DD 66 FB      [19] 1341 	ld	h, -5 (ix)
   0562 77            [ 7] 1342 	ld	(hl), a
                           1343 ;/Users/casa/Desktop/MSX1-MSX2-ZX-asm-basic-watchmen/MSX2/C/src/sys/physics.c:30: entity->jump=0;
   0563 E1            [10] 1344 	pop	hl
   0564 E5            [11] 1345 	push	hl
   0565 36 00         [10] 1346 	ld	(hl), #0x00
   0567                    1347 00104$:
                           1348 ;/Users/casa/Desktop/MSX1-MSX2-ZX-asm-basic-watchmen/MSX2/C/src/sys/physics.c:34: if(entity->x<=0) entity->x=0;
   0567 69            [ 4] 1349 	ld	l, c
   0568 60            [ 4] 1350 	ld	h, b
   0569 23            [ 6] 1351 	inc	hl
   056A 23            [ 6] 1352 	inc	hl
   056B 7E            [ 7] 1353 	ld	a, (hl)
   056C DD 77 FE      [19] 1354 	ld	-2 (ix), a
   056F 23            [ 6] 1355 	inc	hl
   0570 7E            [ 7] 1356 	ld	a, (hl)
   0571 DD 77 FF      [19] 1357 	ld	-1 (ix), a
   0574 2B            [ 6] 1358 	dec	hl
   0575 AF            [ 4] 1359 	xor	a, a
   0576 DD BE FE      [19] 1360 	cp	a, -2 (ix)
   0579 DD 9E FF      [19] 1361 	sbc	a, -1 (ix)
   057C E2r81r05      [10] 1362 	jp	PO, 00151$
   057F EE 80         [ 7] 1363 	xor	a, #0x80
   0581                    1364 00151$:
   0581 FAr88r05      [10] 1365 	jp	M, 00106$
   0584 AF            [ 4] 1366 	xor	a, a
   0585 77            [ 7] 1367 	ld	(hl), a
   0586 23            [ 6] 1368 	inc	hl
   0587 77            [ 7] 1369 	ld	(hl), a
   0588                    1370 00106$:
                           1371 ;/Users/casa/Desktop/MSX1-MSX2-ZX-asm-basic-watchmen/MSX2/C/src/sys/physics.c:36: if(entity->y>180) entity->y=212-16;
   0588 6B            [ 4] 1372 	ld	l, e
   0589 62            [ 4] 1373 	ld	h, d
   058A 7E            [ 7] 1374 	ld	a, (hl)
   058B 23            [ 6] 1375 	inc	hl
   058C 66            [ 7] 1376 	ld	h, (hl)
   058D 6F            [ 4] 1377 	ld	l, a
   058E 3E B4         [ 7] 1378 	ld	a, #0xb4
   0590 BD            [ 4] 1379 	cp	a, l
   0591 3E 00         [ 7] 1380 	ld	a, #0x00
   0593 9C            [ 4] 1381 	sbc	a, h
   0594 E2r99r05      [10] 1382 	jp	PO, 00152$
   0597 EE 80         [ 7] 1383 	xor	a, #0x80
   0599                    1384 00152$:
   0599 F2rA3r05      [10] 1385 	jp	P, 00108$
   059C 6B            [ 4] 1386 	ld	l, e
   059D 62            [ 4] 1387 	ld	h, d
   059E 36 C4         [10] 1388 	ld	(hl), #0xc4
   05A0 23            [ 6] 1389 	inc	hl
   05A1 36 00         [10] 1390 	ld	(hl), #0x00
   05A3                    1391 00108$:
                           1392 ;/Users/casa/Desktop/MSX1-MSX2-ZX-asm-basic-watchmen/MSX2/C/src/sys/physics.c:39: if (sys_collider_get_tile_down_array(entity)<tile_stairs1 || sys_collider_get_tile_down_array(entity)>=255){
   05A3 C5            [11] 1393 	push	bc
   05A4 D5            [11] 1394 	push	de
   05A5 C5            [11] 1395 	push	bc
   05A6 CDrB5r03      [17] 1396 	call	_sys_collider_get_tile_down_array
   05A9 F1            [10] 1397 	pop	af
   05AA D1            [10] 1398 	pop	de
   05AB C1            [10] 1399 	pop	bc
   05AC 7D            [ 4] 1400 	ld	a, l
   05AD D6 C0         [ 7] 1401 	sub	a, #0xc0
   05AF 7C            [ 4] 1402 	ld	a, h
   05B0 17            [ 4] 1403 	rla
   05B1 3F            [ 4] 1404 	ccf
   05B2 1F            [ 4] 1405 	rra
   05B3 DE 80         [ 7] 1406 	sbc	a, #0x80
   05B5 38 14         [12] 1407 	jr	C,00109$
   05B7 D5            [11] 1408 	push	de
   05B8 C5            [11] 1409 	push	bc
   05B9 CDrB5r03      [17] 1410 	call	_sys_collider_get_tile_down_array
   05BC F1            [10] 1411 	pop	af
   05BD D1            [10] 1412 	pop	de
   05BE 01 FF 80      [10] 1413 	ld	bc, #0x80ff
   05C1 29            [11] 1414 	add	hl, hl
   05C2 3F            [ 4] 1415 	ccf
   05C3 CB 1C         [ 8] 1416 	rr	h
   05C5 CB 1D         [ 8] 1417 	rr	l
   05C7 ED 42         [15] 1418 	sbc	hl, bc
   05C9 38 18         [12] 1419 	jr	C,00114$
   05CB                    1420 00109$:
                           1421 ;/Users/casa/Desktop/MSX1-MSX2-ZX-asm-basic-watchmen/MSX2/C/src/sys/physics.c:41: entity->y+=entity->vy;
   05CB 6B            [ 4] 1422 	ld	l, e
   05CC 62            [ 4] 1423 	ld	h, d
   05CD 4E            [ 7] 1424 	ld	c, (hl)
   05CE 23            [ 6] 1425 	inc	hl
   05CF 46            [ 7] 1426 	ld	b, (hl)
   05D0 DD 6E FA      [19] 1427 	ld	l, -6 (ix)
   05D3 DD 66 FB      [19] 1428 	ld	h, -5 (ix)
   05D6 7E            [ 7] 1429 	ld	a, (hl)
   05D7 6F            [ 4] 1430 	ld	l, a
   05D8 17            [ 4] 1431 	rla
   05D9 9F            [ 4] 1432 	sbc	a, a
   05DA 67            [ 4] 1433 	ld	h, a
   05DB 09            [11] 1434 	add	hl, bc
   05DC 4D            [ 4] 1435 	ld	c, l
   05DD 44            [ 4] 1436 	ld	b, h
   05DE 79            [ 4] 1437 	ld	a, c
   05DF 12            [ 7] 1438 	ld	(de), a
   05E0 13            [ 6] 1439 	inc	de
   05E1 78            [ 4] 1440 	ld	a, b
   05E2 12            [ 7] 1441 	ld	(de), a
   05E3                    1442 00114$:
                           1443 ;/Users/casa/Desktop/MSX1-MSX2-ZX-asm-basic-watchmen/MSX2/C/src/sys/physics.c:54: }
   05E3 DD F9         [10] 1444 	ld	sp, ix
   05E5 DD E1         [14] 1445 	pop	ix
   05E7 C9            [10] 1446 	ret
                           1447 ;/Users/casa/Desktop/MSX1-MSX2-ZX-asm-basic-watchmen/MSX2/C/src/sys/physics.c:58: void sys_physics_check_keyboard(TEntity *entity){
                           1448 ;	---------------------------------
                           1449 ; Function sys_physics_check_keyboard
                           1450 ; ---------------------------------
   05E8                    1451 _sys_physics_check_keyboard::
   05E8 CDr00r00      [17] 1452 	call	___sdcc_enter_ix
   05EB 21 F5 FF      [10] 1453 	ld	hl, #-11
   05EE 39            [11] 1454 	add	hl, sp
   05EF F9            [ 6] 1455 	ld	sp, hl
                           1456 ;/Users/casa/Desktop/MSX1-MSX2-ZX-asm-basic-watchmen/MSX2/C/src/sys/physics.c:61: char joy = JoystickRead(0);
   05F0 AF            [ 4] 1457 	xor	a, a
   05F1 F5            [11] 1458 	push	af
   05F2 33            [ 6] 1459 	inc	sp
   05F3 CDr00r00      [17] 1460 	call	_JoystickRead
   05F6 33            [ 6] 1461 	inc	sp
   05F7 DD 75 F5      [19] 1462 	ld	-11 (ix), l
                           1463 ;/Users/casa/Desktop/MSX1-MSX2-ZX-asm-basic-watchmen/MSX2/C/src/sys/physics.c:65: entity->dir=1;
   05FA DD 4E 04      [19] 1464 	ld	c, 4 (ix)
   05FD DD 46 05      [19] 1465 	ld	b, 5 (ix)
   0600 21 0C 00      [10] 1466 	ld	hl, #0x000c
   0603 09            [11] 1467 	add	hl, bc
   0604 DD 75 F6      [19] 1468 	ld	-10 (ix), l
   0607 DD 74 F7      [19] 1469 	ld	-9 (ix), h
                           1470 ;/Users/casa/Desktop/MSX1-MSX2-ZX-asm-basic-watchmen/MSX2/C/src/sys/physics.c:66: entity->y-=entity->vy;
   060A 21 04 00      [10] 1471 	ld	hl, #0x0004
   060D 09            [11] 1472 	add	hl, bc
   060E DD 75 F8      [19] 1473 	ld	-8 (ix), l
   0611 DD 74 F9      [19] 1474 	ld	-7 (ix), h
   0614 21 0B 00      [10] 1475 	ld	hl, #0x000b
   0617 09            [11] 1476 	add	hl, bc
   0618 DD 75 FA      [19] 1477 	ld	-6 (ix), l
   061B DD 74 FB      [19] 1478 	ld	-5 (ix), h
                           1479 ;/Users/casa/Desktop/MSX1-MSX2-ZX-asm-basic-watchmen/MSX2/C/src/sys/physics.c:62: if(joy==1){
   061E DD 7E F5      [19] 1480 	ld	a, -11 (ix)
   0621 3D            [ 4] 1481 	dec	a
   0622 C2rB6r06      [10] 1482 	jp	NZ,00110$
                           1483 ;/Users/casa/Desktop/MSX1-MSX2-ZX-asm-basic-watchmen/MSX2/C/src/sys/physics.c:64: if(sys_collider_get_tile_array(entity)==tile_stairs1 ||sys_collider_get_tile_array(entity)==tile_stairs2 || sys_collider_get_tile_down_array(entity)==tile_stairs1|| sys_collider_get_tile_down_array(entity)==tile_stairs2){
   0625 C5            [11] 1484 	push	bc
   0626 DD 6E 04      [19] 1485 	ld	l, 4 (ix)
   0629 DD 66 05      [19] 1486 	ld	h, 5 (ix)
   062C E5            [11] 1487 	push	hl
   062D CDr89r03      [17] 1488 	call	_sys_collider_get_tile_array
   0630 F1            [10] 1489 	pop	af
   0631 C1            [10] 1490 	pop	bc
   0632 7D            [ 4] 1491 	ld	a, l
   0633 D6 C0         [ 7] 1492 	sub	a, #0xc0
   0635 B4            [ 4] 1493 	or	a, h
   0636 28 39         [12] 1494 	jr	Z,00103$
   0638 C5            [11] 1495 	push	bc
   0639 DD 6E 04      [19] 1496 	ld	l, 4 (ix)
   063C DD 66 05      [19] 1497 	ld	h, 5 (ix)
   063F E5            [11] 1498 	push	hl
   0640 CDr89r03      [17] 1499 	call	_sys_collider_get_tile_array
   0643 F1            [10] 1500 	pop	af
   0644 C1            [10] 1501 	pop	bc
   0645 7D            [ 4] 1502 	ld	a, l
   0646 D6 C1         [ 7] 1503 	sub	a, #0xc1
   0648 B4            [ 4] 1504 	or	a, h
   0649 28 26         [12] 1505 	jr	Z,00103$
   064B C5            [11] 1506 	push	bc
   064C DD 6E 04      [19] 1507 	ld	l, 4 (ix)
   064F DD 66 05      [19] 1508 	ld	h, 5 (ix)
   0652 E5            [11] 1509 	push	hl
   0653 CDrB5r03      [17] 1510 	call	_sys_collider_get_tile_down_array
   0656 F1            [10] 1511 	pop	af
   0657 C1            [10] 1512 	pop	bc
   0658 7D            [ 4] 1513 	ld	a, l
   0659 D6 C0         [ 7] 1514 	sub	a, #0xc0
   065B B4            [ 4] 1515 	or	a, h
   065C 28 13         [12] 1516 	jr	Z,00103$
   065E C5            [11] 1517 	push	bc
   065F DD 6E 04      [19] 1518 	ld	l, 4 (ix)
   0662 DD 66 05      [19] 1519 	ld	h, 5 (ix)
   0665 E5            [11] 1520 	push	hl
   0666 CDrB5r03      [17] 1521 	call	_sys_collider_get_tile_down_array
   0669 F1            [10] 1522 	pop	af
   066A C1            [10] 1523 	pop	bc
   066B 7D            [ 4] 1524 	ld	a, l
   066C D6 C1         [ 7] 1525 	sub	a, #0xc1
   066E B4            [ 4] 1526 	or	a, h
   066F 20 34         [12] 1527 	jr	NZ,00104$
   0671                    1528 00103$:
                           1529 ;/Users/casa/Desktop/MSX1-MSX2-ZX-asm-basic-watchmen/MSX2/C/src/sys/physics.c:65: entity->dir=1;
   0671 DD 6E F6      [19] 1530 	ld	l, -10 (ix)
   0674 DD 66 F7      [19] 1531 	ld	h, -9 (ix)
   0677 36 01         [10] 1532 	ld	(hl), #0x01
                           1533 ;/Users/casa/Desktop/MSX1-MSX2-ZX-asm-basic-watchmen/MSX2/C/src/sys/physics.c:66: entity->y-=entity->vy;
   0679 DD 6E F8      [19] 1534 	ld	l, -8 (ix)
   067C DD 66 F9      [19] 1535 	ld	h, -7 (ix)
   067F 5E            [ 7] 1536 	ld	e, (hl)
   0680 23            [ 6] 1537 	inc	hl
   0681 56            [ 7] 1538 	ld	d, (hl)
   0682 DD 6E FA      [19] 1539 	ld	l, -6 (ix)
   0685 DD 66 FB      [19] 1540 	ld	h, -5 (ix)
   0688 7E            [ 7] 1541 	ld	a, (hl)
   0689 6F            [ 4] 1542 	ld	l, a
   068A 17            [ 4] 1543 	rla
   068B 9F            [ 4] 1544 	sbc	a, a
   068C 67            [ 4] 1545 	ld	h, a
   068D 7B            [ 4] 1546 	ld	a, e
   068E 95            [ 4] 1547 	sub	a, l
   068F 5F            [ 4] 1548 	ld	e, a
   0690 7A            [ 4] 1549 	ld	a, d
   0691 9C            [ 4] 1550 	sbc	a, h
   0692 57            [ 4] 1551 	ld	d, a
   0693 DD 6E F8      [19] 1552 	ld	l, -8 (ix)
   0696 DD 66 F9      [19] 1553 	ld	h, -7 (ix)
   0699 73            [ 7] 1554 	ld	(hl), e
   069A 23            [ 6] 1555 	inc	hl
   069B 72            [ 7] 1556 	ld	(hl), d
                           1557 ;/Users/casa/Desktop/MSX1-MSX2-ZX-asm-basic-watchmen/MSX2/C/src/sys/physics.c:67: sys_anim_update(entity);
   069C C5            [11] 1558 	push	bc
   069D C5            [11] 1559 	push	bc
   069E CDrC3r01      [17] 1560 	call	_sys_anim_update
   06A1 F1            [10] 1561 	pop	af
   06A2 C1            [10] 1562 	pop	bc
   06A3 18 11         [12] 1563 	jr	00110$
   06A5                    1564 00104$:
                           1565 ;/Users/casa/Desktop/MSX1-MSX2-ZX-asm-basic-watchmen/MSX2/C/src/sys/physics.c:69: }else if(entity->jump==0){
   06A5 69            [ 4] 1566 	ld	l, c
   06A6 60            [ 4] 1567 	ld	h, b
   06A7 11 0E 00      [10] 1568 	ld	de, #0x000e
   06AA 19            [11] 1569 	add	hl, de
   06AB 7E            [ 7] 1570 	ld	a, (hl)
   06AC B7            [ 4] 1571 	or	a, a
   06AD 20 07         [12] 1572 	jr	NZ,00110$
                           1573 ;/Users/casa/Desktop/MSX1-MSX2-ZX-asm-basic-watchmen/MSX2/C/src/sys/physics.c:70: entity_jump(entity);
   06AF C5            [11] 1574 	push	bc
   06B0 C5            [11] 1575 	push	bc
   06B1 CDr0Ar08      [17] 1576 	call	_entity_jump
   06B4 F1            [10] 1577 	pop	af
   06B5 C1            [10] 1578 	pop	bc
   06B6                    1579 00110$:
                           1580 ;/Users/casa/Desktop/MSX1-MSX2-ZX-asm-basic-watchmen/MSX2/C/src/sys/physics.c:76: entity->x+=entity->vx;
   06B6 21 02 00      [10] 1581 	ld	hl, #0x0002
   06B9 09            [11] 1582 	add	hl, bc
   06BA DD 75 FC      [19] 1583 	ld	-4 (ix), l
   06BD DD 74 FD      [19] 1584 	ld	-3 (ix), h
   06C0 21 0A 00      [10] 1585 	ld	hl, #0x000a
   06C3 09            [11] 1586 	add	hl, bc
   06C4 DD 75 FE      [19] 1587 	ld	-2 (ix), l
   06C7 DD 74 FF      [19] 1588 	ld	-1 (ix), h
                           1589 ;/Users/casa/Desktop/MSX1-MSX2-ZX-asm-basic-watchmen/MSX2/C/src/sys/physics.c:73: if(joy==2){
   06CA DD 7E F5      [19] 1590 	ld	a, -11 (ix)
   06CD D6 02         [ 7] 1591 	sub	a, #0x02
   06CF 20 2E         [12] 1592 	jr	NZ,00112$
                           1593 ;/Users/casa/Desktop/MSX1-MSX2-ZX-asm-basic-watchmen/MSX2/C/src/sys/physics.c:74: entity->dir=3;
   06D1 DD 6E F6      [19] 1594 	ld	l, -10 (ix)
   06D4 DD 66 F7      [19] 1595 	ld	h, -9 (ix)
   06D7 36 03         [10] 1596 	ld	(hl), #0x03
                           1597 ;/Users/casa/Desktop/MSX1-MSX2-ZX-asm-basic-watchmen/MSX2/C/src/sys/physics.c:75: entity_jump(entity); 
   06D9 C5            [11] 1598 	push	bc
   06DA C5            [11] 1599 	push	bc
   06DB CDr0Ar08      [17] 1600 	call	_entity_jump
   06DE F1            [10] 1601 	pop	af
   06DF C1            [10] 1602 	pop	bc
                           1603 ;/Users/casa/Desktop/MSX1-MSX2-ZX-asm-basic-watchmen/MSX2/C/src/sys/physics.c:76: entity->x+=entity->vx;
   06E0 DD 6E FC      [19] 1604 	ld	l, -4 (ix)
   06E3 DD 66 FD      [19] 1605 	ld	h, -3 (ix)
   06E6 5E            [ 7] 1606 	ld	e, (hl)
   06E7 23            [ 6] 1607 	inc	hl
   06E8 56            [ 7] 1608 	ld	d, (hl)
   06E9 DD 6E FE      [19] 1609 	ld	l, -2 (ix)
   06EC DD 66 FF      [19] 1610 	ld	h, -1 (ix)
   06EF 7E            [ 7] 1611 	ld	a, (hl)
   06F0 6F            [ 4] 1612 	ld	l, a
   06F1 17            [ 4] 1613 	rla
   06F2 9F            [ 4] 1614 	sbc	a, a
   06F3 67            [ 4] 1615 	ld	h, a
   06F4 19            [11] 1616 	add	hl, de
   06F5 EB            [ 4] 1617 	ex	de, hl
   06F6 DD 6E FC      [19] 1618 	ld	l, -4 (ix)
   06F9 DD 66 FD      [19] 1619 	ld	h, -3 (ix)
   06FC 73            [ 7] 1620 	ld	(hl), e
   06FD 23            [ 6] 1621 	inc	hl
   06FE 72            [ 7] 1622 	ld	(hl), d
   06FF                    1623 00112$:
                           1624 ;/Users/casa/Desktop/MSX1-MSX2-ZX-asm-basic-watchmen/MSX2/C/src/sys/physics.c:78: if(joy==3){
   06FF DD 7E F5      [19] 1625 	ld	a, -11 (ix)
   0702 D6 03         [ 7] 1626 	sub	a, #0x03
   0704 20 2E         [12] 1627 	jr	NZ,00114$
                           1628 ;/Users/casa/Desktop/MSX1-MSX2-ZX-asm-basic-watchmen/MSX2/C/src/sys/physics.c:79: entity->dir=3;
   0706 DD 6E F6      [19] 1629 	ld	l, -10 (ix)
   0709 DD 66 F7      [19] 1630 	ld	h, -9 (ix)
   070C 36 03         [10] 1631 	ld	(hl), #0x03
                           1632 ;/Users/casa/Desktop/MSX1-MSX2-ZX-asm-basic-watchmen/MSX2/C/src/sys/physics.c:81: entity->x+=entity->vx;
   070E DD 6E FC      [19] 1633 	ld	l, -4 (ix)
   0711 DD 66 FD      [19] 1634 	ld	h, -3 (ix)
   0714 5E            [ 7] 1635 	ld	e, (hl)
   0715 23            [ 6] 1636 	inc	hl
   0716 56            [ 7] 1637 	ld	d, (hl)
   0717 DD 6E FE      [19] 1638 	ld	l, -2 (ix)
   071A DD 66 FF      [19] 1639 	ld	h, -1 (ix)
   071D 7E            [ 7] 1640 	ld	a, (hl)
   071E 6F            [ 4] 1641 	ld	l, a
   071F 17            [ 4] 1642 	rla
   0720 9F            [ 4] 1643 	sbc	a, a
   0721 67            [ 4] 1644 	ld	h, a
   0722 19            [11] 1645 	add	hl, de
   0723 EB            [ 4] 1646 	ex	de, hl
   0724 DD 6E FC      [19] 1647 	ld	l, -4 (ix)
   0727 DD 66 FD      [19] 1648 	ld	h, -3 (ix)
   072A 73            [ 7] 1649 	ld	(hl), e
   072B 23            [ 6] 1650 	inc	hl
   072C 72            [ 7] 1651 	ld	(hl), d
                           1652 ;/Users/casa/Desktop/MSX1-MSX2-ZX-asm-basic-watchmen/MSX2/C/src/sys/physics.c:82: sys_anim_update(entity);
   072D C5            [11] 1653 	push	bc
   072E C5            [11] 1654 	push	bc
   072F CDrC3r01      [17] 1655 	call	_sys_anim_update
   0732 F1            [10] 1656 	pop	af
   0733 C1            [10] 1657 	pop	bc
   0734                    1658 00114$:
                           1659 ;/Users/casa/Desktop/MSX1-MSX2-ZX-asm-basic-watchmen/MSX2/C/src/sys/physics.c:86: if(joy==5){
   0734 DD 7E F5      [19] 1660 	ld	a, -11 (ix)
   0737 D6 05         [ 7] 1661 	sub	a, #0x05
   0739 20 54         [12] 1662 	jr	NZ,00119$
                           1663 ;/Users/casa/Desktop/MSX1-MSX2-ZX-asm-basic-watchmen/MSX2/C/src/sys/physics.c:87: if(sys_collider_get_tile_down_array(entity)==tile_stairs1 ||sys_collider_get_tile_down_array(entity)==tile_stairs2 ){
   073B C5            [11] 1664 	push	bc
   073C DD 6E 04      [19] 1665 	ld	l, 4 (ix)
   073F DD 66 05      [19] 1666 	ld	h, 5 (ix)
   0742 E5            [11] 1667 	push	hl
   0743 CDrB5r03      [17] 1668 	call	_sys_collider_get_tile_down_array
   0746 F1            [10] 1669 	pop	af
   0747 C1            [10] 1670 	pop	bc
   0748 7D            [ 4] 1671 	ld	a, l
   0749 D6 C0         [ 7] 1672 	sub	a, #0xc0
   074B B4            [ 4] 1673 	or	a, h
   074C 28 13         [12] 1674 	jr	Z,00115$
   074E C5            [11] 1675 	push	bc
   074F DD 6E 04      [19] 1676 	ld	l, 4 (ix)
   0752 DD 66 05      [19] 1677 	ld	h, 5 (ix)
   0755 E5            [11] 1678 	push	hl
   0756 CDrB5r03      [17] 1679 	call	_sys_collider_get_tile_down_array
   0759 F1            [10] 1680 	pop	af
   075A C1            [10] 1681 	pop	bc
   075B 7D            [ 4] 1682 	ld	a, l
   075C D6 C1         [ 7] 1683 	sub	a, #0xc1
   075E B4            [ 4] 1684 	or	a, h
   075F 20 2E         [12] 1685 	jr	NZ,00119$
   0761                    1686 00115$:
                           1687 ;/Users/casa/Desktop/MSX1-MSX2-ZX-asm-basic-watchmen/MSX2/C/src/sys/physics.c:88: entity->dir=5;
   0761 DD 6E F6      [19] 1688 	ld	l, -10 (ix)
   0764 DD 66 F7      [19] 1689 	ld	h, -9 (ix)
   0767 36 05         [10] 1690 	ld	(hl), #0x05
                           1691 ;/Users/casa/Desktop/MSX1-MSX2-ZX-asm-basic-watchmen/MSX2/C/src/sys/physics.c:89: entity->y+=entity->vy;
   0769 DD 6E F8      [19] 1692 	ld	l, -8 (ix)
   076C DD 66 F9      [19] 1693 	ld	h, -7 (ix)
   076F 5E            [ 7] 1694 	ld	e, (hl)
   0770 23            [ 6] 1695 	inc	hl
   0771 56            [ 7] 1696 	ld	d, (hl)
   0772 DD 6E FA      [19] 1697 	ld	l, -6 (ix)
   0775 DD 66 FB      [19] 1698 	ld	h, -5 (ix)
   0778 7E            [ 7] 1699 	ld	a, (hl)
   0779 6F            [ 4] 1700 	ld	l, a
   077A 17            [ 4] 1701 	rla
   077B 9F            [ 4] 1702 	sbc	a, a
   077C 67            [ 4] 1703 	ld	h, a
   077D 19            [11] 1704 	add	hl, de
   077E EB            [ 4] 1705 	ex	de, hl
   077F DD 6E F8      [19] 1706 	ld	l, -8 (ix)
   0782 DD 66 F9      [19] 1707 	ld	h, -7 (ix)
   0785 73            [ 7] 1708 	ld	(hl), e
   0786 23            [ 6] 1709 	inc	hl
   0787 72            [ 7] 1710 	ld	(hl), d
                           1711 ;/Users/casa/Desktop/MSX1-MSX2-ZX-asm-basic-watchmen/MSX2/C/src/sys/physics.c:90: sys_anim_update(entity);
   0788 C5            [11] 1712 	push	bc
   0789 C5            [11] 1713 	push	bc
   078A CDrC3r01      [17] 1714 	call	_sys_anim_update
   078D F1            [10] 1715 	pop	af
   078E C1            [10] 1716 	pop	bc
   078F                    1717 00119$:
                           1718 ;/Users/casa/Desktop/MSX1-MSX2-ZX-asm-basic-watchmen/MSX2/C/src/sys/physics.c:95: if(joy==7) {
   078F DD 7E F5      [19] 1719 	ld	a, -11 (ix)
   0792 D6 07         [ 7] 1720 	sub	a, #0x07
   0794 20 32         [12] 1721 	jr	NZ,00121$
                           1722 ;/Users/casa/Desktop/MSX1-MSX2-ZX-asm-basic-watchmen/MSX2/C/src/sys/physics.c:96: entity->dir=7;
   0796 DD 6E F6      [19] 1723 	ld	l, -10 (ix)
   0799 DD 66 F7      [19] 1724 	ld	h, -9 (ix)
   079C 36 07         [10] 1725 	ld	(hl), #0x07
                           1726 ;/Users/casa/Desktop/MSX1-MSX2-ZX-asm-basic-watchmen/MSX2/C/src/sys/physics.c:97: sys_anim_update(entity);
   079E C5            [11] 1727 	push	bc
   079F C5            [11] 1728 	push	bc
   07A0 CDrC3r01      [17] 1729 	call	_sys_anim_update
   07A3 F1            [10] 1730 	pop	af
   07A4 C1            [10] 1731 	pop	bc
                           1732 ;/Users/casa/Desktop/MSX1-MSX2-ZX-asm-basic-watchmen/MSX2/C/src/sys/physics.c:98: entity->x-=entity->vx; 
   07A5 DD 6E FC      [19] 1733 	ld	l, -4 (ix)
   07A8 DD 66 FD      [19] 1734 	ld	h, -3 (ix)
   07AB 5E            [ 7] 1735 	ld	e, (hl)
   07AC 23            [ 6] 1736 	inc	hl
   07AD 56            [ 7] 1737 	ld	d, (hl)
   07AE DD 6E FE      [19] 1738 	ld	l, -2 (ix)
   07B1 DD 66 FF      [19] 1739 	ld	h, -1 (ix)
   07B4 7E            [ 7] 1740 	ld	a, (hl)
   07B5 6F            [ 4] 1741 	ld	l, a
   07B6 17            [ 4] 1742 	rla
   07B7 9F            [ 4] 1743 	sbc	a, a
   07B8 67            [ 4] 1744 	ld	h, a
   07B9 7B            [ 4] 1745 	ld	a, e
   07BA 95            [ 4] 1746 	sub	a, l
   07BB 5F            [ 4] 1747 	ld	e, a
   07BC 7A            [ 4] 1748 	ld	a, d
   07BD 9C            [ 4] 1749 	sbc	a, h
   07BE 57            [ 4] 1750 	ld	d, a
   07BF DD 6E FC      [19] 1751 	ld	l, -4 (ix)
   07C2 DD 66 FD      [19] 1752 	ld	h, -3 (ix)
   07C5 73            [ 7] 1753 	ld	(hl), e
   07C6 23            [ 6] 1754 	inc	hl
   07C7 72            [ 7] 1755 	ld	(hl), d
   07C8                    1756 00121$:
                           1757 ;/Users/casa/Desktop/MSX1-MSX2-ZX-asm-basic-watchmen/MSX2/C/src/sys/physics.c:100: if(joy==8){
   07C8 DD 7E F5      [19] 1758 	ld	a, -11 (ix)
   07CB D6 08         [ 7] 1759 	sub	a, #0x08
   07CD 20 30         [12] 1760 	jr	NZ,00123$
                           1761 ;/Users/casa/Desktop/MSX1-MSX2-ZX-asm-basic-watchmen/MSX2/C/src/sys/physics.c:101: entity->dir=7;
   07CF DD 6E F6      [19] 1762 	ld	l, -10 (ix)
   07D2 DD 66 F7      [19] 1763 	ld	h, -9 (ix)
   07D5 36 07         [10] 1764 	ld	(hl), #0x07
                           1765 ;/Users/casa/Desktop/MSX1-MSX2-ZX-asm-basic-watchmen/MSX2/C/src/sys/physics.c:102: entity_jump(entity);
   07D7 C5            [11] 1766 	push	bc
   07D8 CDr0Ar08      [17] 1767 	call	_entity_jump
   07DB F1            [10] 1768 	pop	af
                           1769 ;/Users/casa/Desktop/MSX1-MSX2-ZX-asm-basic-watchmen/MSX2/C/src/sys/physics.c:103: entity->x-=entity->vx; 
   07DC DD 6E FC      [19] 1770 	ld	l, -4 (ix)
   07DF DD 66 FD      [19] 1771 	ld	h, -3 (ix)
   07E2 4E            [ 7] 1772 	ld	c, (hl)
   07E3 23            [ 6] 1773 	inc	hl
   07E4 46            [ 7] 1774 	ld	b, (hl)
   07E5 DD 6E FE      [19] 1775 	ld	l, -2 (ix)
   07E8 DD 66 FF      [19] 1776 	ld	h, -1 (ix)
   07EB 7E            [ 7] 1777 	ld	a, (hl)
   07EC 5F            [ 4] 1778 	ld	e, a
   07ED 17            [ 4] 1779 	rla
   07EE 9F            [ 4] 1780 	sbc	a, a
   07EF 57            [ 4] 1781 	ld	d, a
   07F0 79            [ 4] 1782 	ld	a, c
   07F1 93            [ 4] 1783 	sub	a, e
   07F2 4F            [ 4] 1784 	ld	c, a
   07F3 78            [ 4] 1785 	ld	a, b
   07F4 9A            [ 4] 1786 	sbc	a, d
   07F5 47            [ 4] 1787 	ld	b, a
   07F6 DD 6E FC      [19] 1788 	ld	l, -4 (ix)
   07F9 DD 66 FD      [19] 1789 	ld	h, -3 (ix)
   07FC 71            [ 7] 1790 	ld	(hl), c
   07FD 23            [ 6] 1791 	inc	hl
   07FE 70            [ 7] 1792 	ld	(hl), b
   07FF                    1793 00123$:
                           1794 ;/Users/casa/Desktop/MSX1-MSX2-ZX-asm-basic-watchmen/MSX2/C/src/sys/physics.c:107: char trigger = TriggerRead(0);
   07FF AF            [ 4] 1795 	xor	a, a
   0800 F5            [11] 1796 	push	af
   0801 33            [ 6] 1797 	inc	sp
   0802 CDr00r00      [17] 1798 	call	_TriggerRead
                           1799 ;/Users/casa/Desktop/MSX1-MSX2-ZX-asm-basic-watchmen/MSX2/C/src/sys/physics.c:108: if (trigger!=0) {
                           1800 ;/Users/casa/Desktop/MSX1-MSX2-ZX-asm-basic-watchmen/MSX2/C/src/sys/physics.c:115: }
   0805 DD F9         [10] 1801 	ld	sp,ix
   0807 DD E1         [14] 1802 	pop	ix
   0809 C9            [10] 1803 	ret
                           1804 ;/Users/casa/Desktop/MSX1-MSX2-ZX-asm-basic-watchmen/MSX2/C/src/sys/physics.c:118: void entity_jump(TEntity *entity){
                           1805 ;	---------------------------------
                           1806 ; Function entity_jump
                           1807 ; ---------------------------------
   080A                    1808 _entity_jump::
   080A CDr00r00      [17] 1809 	call	___sdcc_enter_ix
                           1810 ;/Users/casa/Desktop/MSX1-MSX2-ZX-asm-basic-watchmen/MSX2/C/src/sys/physics.c:120: if (entity->jump==0 && sys_collider_get_tile_down_array(entity)>=tile_floor_tile && sys_collider_get_tile_down_array(entity)<255){
   080D DD 4E 04      [19] 1811 	ld	c, 4 (ix)
   0810 DD 46 05      [19] 1812 	ld	b, 5 (ix)
   0813 21 0E 00      [10] 1813 	ld	hl, #0x000e
   0816 09            [11] 1814 	add	hl, bc
   0817 EB            [ 4] 1815 	ex	de, hl
   0818 1A            [ 7] 1816 	ld	a, (de)
   0819 B7            [ 4] 1817 	or	a, a
   081A 20 40         [12] 1818 	jr	NZ,00105$
   081C C5            [11] 1819 	push	bc
   081D D5            [11] 1820 	push	de
   081E C5            [11] 1821 	push	bc
   081F CDrB5r03      [17] 1822 	call	_sys_collider_get_tile_down_array
   0822 F1            [10] 1823 	pop	af
   0823 D1            [10] 1824 	pop	de
   0824 C1            [10] 1825 	pop	bc
   0825 7D            [ 4] 1826 	ld	a, l
   0826 D6 E0         [ 7] 1827 	sub	a, #0xe0
   0828 7C            [ 4] 1828 	ld	a, h
   0829 17            [ 4] 1829 	rla
   082A 3F            [ 4] 1830 	ccf
   082B 1F            [ 4] 1831 	rra
   082C DE 80         [ 7] 1832 	sbc	a, #0x80
   082E 38 2C         [12] 1833 	jr	C,00105$
   0830 C5            [11] 1834 	push	bc
   0831 D5            [11] 1835 	push	de
   0832 C5            [11] 1836 	push	bc
   0833 CDrB5r03      [17] 1837 	call	_sys_collider_get_tile_down_array
   0836 F1            [10] 1838 	pop	af
   0837 D1            [10] 1839 	pop	de
   0838 C1            [10] 1840 	pop	bc
   0839 7D            [ 4] 1841 	ld	a, l
   083A D6 FF         [ 7] 1842 	sub	a, #0xff
   083C 7C            [ 4] 1843 	ld	a, h
   083D 17            [ 4] 1844 	rla
   083E 3F            [ 4] 1845 	ccf
   083F 1F            [ 4] 1846 	rra
   0840 DE 80         [ 7] 1847 	sbc	a, #0x80
   0842 30 18         [12] 1848 	jr	NC,00105$
                           1849 ;/Users/casa/Desktop/MSX1-MSX2-ZX-asm-basic-watchmen/MSX2/C/src/sys/physics.c:122: entity->jump=1;  
   0844 3E 01         [ 7] 1850 	ld	a, #0x01
   0846 12            [ 7] 1851 	ld	(de), a
                           1852 ;/Users/casa/Desktop/MSX1-MSX2-ZX-asm-basic-watchmen/MSX2/C/src/sys/physics.c:124: entity->vy*=-1;
   0847 21 0B 00      [10] 1853 	ld	hl, #0x000b
   084A 09            [11] 1854 	add	hl, bc
   084B 7E            [ 7] 1855 	ld	a, (hl)
   084C ED 44         [ 8] 1856 	neg
   084E 77            [ 7] 1857 	ld	(hl), a
                           1858 ;/Users/casa/Desktop/MSX1-MSX2-ZX-asm-basic-watchmen/MSX2/C/src/sys/physics.c:125: entity->old_y=entity->y;
   084F 21 07 00      [10] 1859 	ld	hl, #0x0007
   0852 09            [11] 1860 	add	hl, bc
   0853 EB            [ 4] 1861 	ex	de, hl
   0854 69            [ 4] 1862 	ld	l, c
   0855 60            [ 4] 1863 	ld	h, b
   0856 01 04 00      [10] 1864 	ld	bc, #0x0004
   0859 09            [11] 1865 	add	hl, bc
   085A 7E            [ 7] 1866 	ld	a, (hl)
   085B 12            [ 7] 1867 	ld	(de), a
   085C                    1868 00105$:
                           1869 ;/Users/casa/Desktop/MSX1-MSX2-ZX-asm-basic-watchmen/MSX2/C/src/sys/physics.c:127: }
   085C DD E1         [14] 1870 	pop	ix
   085E C9            [10] 1871 	ret
                           1872 ;/Users/casa/Desktop/MSX1-MSX2-ZX-asm-basic-watchmen/MSX2/C/src/sys/render.c:17: void sys_render_init(){
                           1873 ;	---------------------------------
                           1874 ; Function sys_render_init
                           1875 ; ---------------------------------
   085F                    1876 _sys_render_init::
                           1877 ;/Users/casa/Desktop/MSX1-MSX2-ZX-asm-basic-watchmen/MSX2/C/src/sys/render.c:19: SetColors(15,0,4);
   085F 3E 04         [ 7] 1878 	ld	a, #0x04
   0861 F5            [11] 1879 	push	af
   0862 33            [ 6] 1880 	inc	sp
   0863 AF            [ 4] 1881 	xor	a, a
   0864 57            [ 4] 1882 	ld	d,a
   0865 1E 0F         [ 7] 1883 	ld	e,#0x0f
   0867 D5            [11] 1884 	push	de
   0868 CDr00r00      [17] 1885 	call	_SetColors
   086B F1            [10] 1886 	pop	af
   086C 33            [ 6] 1887 	inc	sp
                           1888 ;/Users/casa/Desktop/MSX1-MSX2-ZX-asm-basic-watchmen/MSX2/C/src/sys/render.c:20: Screen(5);
   086D 3E 05         [ 7] 1889 	ld	a, #0x05
   086F F5            [11] 1890 	push	af
   0870 33            [ 6] 1891 	inc	sp
   0871 CDr00r00      [17] 1892 	call	_Screen
   0874 33            [ 6] 1893 	inc	sp
                           1894 ;/Users/casa/Desktop/MSX1-MSX2-ZX-asm-basic-watchmen/MSX2/C/src/sys/render.c:22: SpriteReset(); 
   0875 CDr00r00      [17] 1895 	call	_SpriteReset
                           1896 ;/Users/casa/Desktop/MSX1-MSX2-ZX-asm-basic-watchmen/MSX2/C/src/sys/render.c:24: Sprite16(); 
   0878 CDr00r00      [17] 1897 	call	_Sprite16
                           1898 ;/Users/casa/Desktop/MSX1-MSX2-ZX-asm-basic-watchmen/MSX2/C/src/sys/render.c:26: SpriteSmall(); 
   087B CDr00r00      [17] 1899 	call	_SpriteSmall
                           1900 ;/Users/casa/Desktop/MSX1-MSX2-ZX-asm-basic-watchmen/MSX2/C/src/sys/render.c:28: SpriteOff();
                           1901 ;/Users/casa/Desktop/MSX1-MSX2-ZX-asm-basic-watchmen/MSX2/C/src/sys/render.c:29: }
   087E C3r00r00      [10] 1902 	jp	_SpriteOff
                           1903 ;/Users/casa/Desktop/MSX1-MSX2-ZX-asm-basic-watchmen/MSX2/C/src/sys/render.c:32: void sys_render_update(TEntity *entity){
                           1904 ;	---------------------------------
                           1905 ; Function sys_render_update
                           1906 ; ---------------------------------
   0881                    1907 _sys_render_update::
                           1908 ;/Users/casa/Desktop/MSX1-MSX2-ZX-asm-basic-watchmen/MSX2/C/src/sys/render.c:33: if (entity->type==entity_type_player)sys_render_update_player(entity);
   0881 D1            [10] 1909 	pop	de
   0882 C1            [10] 1910 	pop	bc
   0883 C5            [11] 1911 	push	bc
   0884 D5            [11] 1912 	push	de
   0885 0A            [ 7] 1913 	ld	a, (bc)
   0886 3D            [ 4] 1914 	dec	a
   0887 20 07         [12] 1915 	jr	NZ,00102$
   0889 C5            [11] 1916 	push	bc
   088A C5            [11] 1917 	push	bc
   088B CDrADr08      [17] 1918 	call	_sys_render_update_player
   088E F1            [10] 1919 	pop	af
   088F C1            [10] 1920 	pop	bc
   0890                    1921 00102$:
                           1922 ;/Users/casa/Desktop/MSX1-MSX2-ZX-asm-basic-watchmen/MSX2/C/src/sys/render.c:34: if (entity->type==entity_type_enemy1)sys_render_update_enemy(entity);
   0890 0A            [ 7] 1923 	ld	a, (bc)
   0891 D6 02         [ 7] 1924 	sub	a, #0x02
   0893 20 0E         [12] 1925 	jr	NZ,00104$
   0895 C5            [11] 1926 	push	bc
   0896 21 04 00      [10] 1927 	ld	hl, #4
   0899 39            [11] 1928 	add	hl, sp
   089A 4E            [ 7] 1929 	ld	c, (hl)
   089B 23            [ 6] 1930 	inc	hl
   089C 46            [ 7] 1931 	ld	b, (hl)
   089D C5            [11] 1932 	push	bc
   089E CDrD4r09      [17] 1933 	call	_sys_render_update_enemy
   08A1 F1            [10] 1934 	pop	af
   08A2 C1            [10] 1935 	pop	bc
   08A3                    1936 00104$:
                           1937 ;/Users/casa/Desktop/MSX1-MSX2-ZX-asm-basic-watchmen/MSX2/C/src/sys/render.c:36: if (entity->type==entity_type_object_money)sys_render_update_object(entity);
   08A3 0A            [ 7] 1938 	ld	a, (bc)
   08A4 D6 16         [ 7] 1939 	sub	a, #0x16
   08A6 C0            [11] 1940 	ret	NZ
   08A7 C5            [11] 1941 	push	bc
   08A8 CDrD0r0A      [17] 1942 	call	_sys_render_update_object
   08AB F1            [10] 1943 	pop	af
                           1944 ;/Users/casa/Desktop/MSX1-MSX2-ZX-asm-basic-watchmen/MSX2/C/src/sys/render.c:39: }
   08AC C9            [10] 1945 	ret
                           1946 ;/Users/casa/Desktop/MSX1-MSX2-ZX-asm-basic-watchmen/MSX2/C/src/sys/render.c:40: void sys_render_update_player(TEntity *player){
                           1947 ;	---------------------------------
                           1948 ; Function sys_render_update_player
                           1949 ; ---------------------------------
   08AD                    1950 _sys_render_update_player::
   08AD CDr00r00      [17] 1951 	call	___sdcc_enter_ix
   08B0 F5            [11] 1952 	push	af
   08B1 F5            [11] 1953 	push	af
   08B2 F5            [11] 1954 	push	af
   08B3 3B            [ 6] 1955 	dec	sp
                           1956 ;/Users/casa/Desktop/MSX1-MSX2-ZX-asm-basic-watchmen/MSX2/C/src/sys/render.c:49: if (player->dir==1 || player->dir==5){
   08B4 DD 4E 04      [19] 1957 	ld	c, 4 (ix)
   08B7 DD 46 05      [19] 1958 	ld	b, 5 (ix)
   08BA 69            [ 4] 1959 	ld	l, c
   08BB 60            [ 4] 1960 	ld	h, b
   08BC 11 0C 00      [10] 1961 	ld	de, #0x000c
   08BF 19            [11] 1962 	add	hl, de
   08C0 7E            [ 7] 1963 	ld	a, (hl)
   08C1 DD 77 F9      [19] 1964 	ld	-7 (ix), a
                           1965 ;/Users/casa/Desktop/MSX1-MSX2-ZX-asm-basic-watchmen/MSX2/C/src/sys/render.c:50: PutSprite( player->plane, player_up1_pattern, player->x,player->y,0 );
   08C4 21 04 00      [10] 1966 	ld	hl, #0x0004
   08C7 09            [11] 1967 	add	hl, bc
   08C8 DD 75 FA      [19] 1968 	ld	-6 (ix), l
   08CB DD 74 FB      [19] 1969 	ld	-5 (ix), h
   08CE 59            [ 4] 1970 	ld	e, c
   08CF 50            [ 4] 1971 	ld	d, b
   08D0 13            [ 6] 1972 	inc	de
   08D1 13            [ 6] 1973 	inc	de
   08D2 21 11 00      [10] 1974 	ld	hl, #0x0011
   08D5 09            [11] 1975 	add	hl, bc
   08D6 DD 75 FC      [19] 1976 	ld	-4 (ix), l
   08D9 DD 74 FD      [19] 1977 	ld	-3 (ix), h
                           1978 ;/Users/casa/Desktop/MSX1-MSX2-ZX-asm-basic-watchmen/MSX2/C/src/sys/render.c:49: if (player->dir==1 || player->dir==5){
   08DC DD 7E F9      [19] 1979 	ld	a, -7 (ix)
   08DF 3D            [ 4] 1980 	dec	a
   08E0 28 07         [12] 1981 	jr	Z,00118$
   08E2 DD 7E F9      [19] 1982 	ld	a, -7 (ix)
   08E5 D6 05         [ 7] 1983 	sub	a, #0x05
   08E7 20 24         [12] 1984 	jr	NZ,00119$
   08E9                    1985 00118$:
                           1986 ;/Users/casa/Desktop/MSX1-MSX2-ZX-asm-basic-watchmen/MSX2/C/src/sys/render.c:50: PutSprite( player->plane, player_up1_pattern, player->x,player->y,0 );
   08E9 DD 6E FA      [19] 1987 	ld	l, -6 (ix)
   08EC DD 66 FB      [19] 1988 	ld	h, -5 (ix)
   08EF 4E            [ 7] 1989 	ld	c, (hl)
   08F0 1A            [ 7] 1990 	ld	a, (de)
   08F1 5F            [ 4] 1991 	ld	e, a
   08F2 DD 6E FC      [19] 1992 	ld	l, -4 (ix)
   08F5 DD 66 FD      [19] 1993 	ld	h, -3 (ix)
   08F8 46            [ 7] 1994 	ld	b, (hl)
   08F9 AF            [ 4] 1995 	xor	a, a
   08FA F5            [11] 1996 	push	af
   08FB 33            [ 6] 1997 	inc	sp
   08FC 51            [ 4] 1998 	ld	d, c
   08FD D5            [11] 1999 	push	de
   08FE 3E 10         [ 7] 2000 	ld	a, #0x10
   0900 F5            [11] 2001 	push	af
   0901 33            [ 6] 2002 	inc	sp
   0902 C5            [11] 2003 	push	bc
   0903 33            [ 6] 2004 	inc	sp
   0904 CDr00r00      [17] 2005 	call	_PutSprite
   0907 F1            [10] 2006 	pop	af
   0908 F1            [10] 2007 	pop	af
   0909 33            [ 6] 2008 	inc	sp
   090A C3rCFr09      [10] 2009 	jp	00122$
   090D                    2010 00119$:
                           2011 ;/Users/casa/Desktop/MSX1-MSX2-ZX-asm-basic-watchmen/MSX2/C/src/sys/render.c:52: if (player->jump==1){
   090D 21 0E 00      [10] 2012 	ld	hl, #0x000e
   0910 09            [11] 2013 	add	hl, bc
                           2014 ;/Users/casa/Desktop/MSX1-MSX2-ZX-asm-basic-watchmen/MSX2/C/src/sys/render.c:55: if(player->andando ==0 ){
   0911 79            [ 4] 2015 	ld	a, c
   0912 C6 0D         [ 7] 2016 	add	a, #0x0d
   0914 DD 77 FE      [19] 2017 	ld	-2 (ix), a
   0917 78            [ 4] 2018 	ld	a, b
   0918 CE 00         [ 7] 2019 	adc	a, #0x00
   091A DD 77 FF      [19] 2020 	ld	-1 (ix), a
                           2021 ;/Users/casa/Desktop/MSX1-MSX2-ZX-asm-basic-watchmen/MSX2/C/src/sys/render.c:51: }else if (player->dir==3){
   091D DD 7E F9      [19] 2022 	ld	a, -7 (ix)
   0920 D6 03         [ 7] 2023 	sub	a, #0x03
   0922 20 58         [12] 2024 	jr	NZ,00116$
                           2025 ;/Users/casa/Desktop/MSX1-MSX2-ZX-asm-basic-watchmen/MSX2/C/src/sys/render.c:52: if (player->jump==1){
   0924 4E            [ 7] 2026 	ld	c, (hl)
                           2027 ;/Users/casa/Desktop/MSX1-MSX2-ZX-asm-basic-watchmen/MSX2/C/src/sys/render.c:50: PutSprite( player->plane, player_up1_pattern, player->x,player->y,0 );
   0925 DD 6E FA      [19] 2028 	ld	l, -6 (ix)
   0928 DD 66 FB      [19] 2029 	ld	h, -5 (ix)
   092B 46            [ 7] 2030 	ld	b, (hl)
   092C 1A            [ 7] 2031 	ld	a, (de)
   092D 5F            [ 4] 2032 	ld	e, a
   092E DD 6E FC      [19] 2033 	ld	l, -4 (ix)
   0931 DD 66 FD      [19] 2034 	ld	h, -3 (ix)
   0934 56            [ 7] 2035 	ld	d, (hl)
                           2036 ;/Users/casa/Desktop/MSX1-MSX2-ZX-asm-basic-watchmen/MSX2/C/src/sys/render.c:52: if (player->jump==1){
   0935 0D            [ 4] 2037 	dec	c
   0936 20 14         [12] 2038 	jr	NZ,00105$
                           2039 ;/Users/casa/Desktop/MSX1-MSX2-ZX-asm-basic-watchmen/MSX2/C/src/sys/render.c:53: PutSprite( player->plane, player_Jump_right_pattern, player->x,player->y,0 );
   0938 AF            [ 4] 2040 	xor	a, a
   0939 F5            [11] 2041 	push	af
   093A 33            [ 6] 2042 	inc	sp
   093B C5            [11] 2043 	push	bc
   093C 33            [ 6] 2044 	inc	sp
   093D 43            [ 4] 2045 	ld	b, e
   093E 0E 1C         [ 7] 2046 	ld	c,#0x1c
   0940 C5            [11] 2047 	push	bc
   0941 D5            [11] 2048 	push	de
   0942 33            [ 6] 2049 	inc	sp
   0943 CDr00r00      [17] 2050 	call	_PutSprite
   0946 F1            [10] 2051 	pop	af
   0947 F1            [10] 2052 	pop	af
   0948 33            [ 6] 2053 	inc	sp
   0949 C3rCFr09      [10] 2054 	jp	00122$
   094C                    2055 00105$:
                           2056 ;/Users/casa/Desktop/MSX1-MSX2-ZX-asm-basic-watchmen/MSX2/C/src/sys/render.c:55: if(player->andando ==0 ){
   094C DD 6E FE      [19] 2057 	ld	l, -2 (ix)
   094F DD 66 FF      [19] 2058 	ld	h, -1 (ix)
   0952 7E            [ 7] 2059 	ld	a, (hl)
   0953 B7            [ 4] 2060 	or	a, a
   0954 20 13         [12] 2061 	jr	NZ,00102$
                           2062 ;/Users/casa/Desktop/MSX1-MSX2-ZX-asm-basic-watchmen/MSX2/C/src/sys/render.c:56: PutSprite( player->plane, player_right_pattern, player->x,player->y,0 );
   0956 AF            [ 4] 2063 	xor	a, a
   0957 F5            [11] 2064 	push	af
   0958 33            [ 6] 2065 	inc	sp
   0959 C5            [11] 2066 	push	bc
   095A 33            [ 6] 2067 	inc	sp
   095B 43            [ 4] 2068 	ld	b, e
   095C 0E 08         [ 7] 2069 	ld	c,#0x08
   095E C5            [11] 2070 	push	bc
   095F D5            [11] 2071 	push	de
   0960 33            [ 6] 2072 	inc	sp
   0961 CDr00r00      [17] 2073 	call	_PutSprite
   0964 F1            [10] 2074 	pop	af
   0965 F1            [10] 2075 	pop	af
   0966 33            [ 6] 2076 	inc	sp
   0967 18 66         [12] 2077 	jr	00122$
   0969                    2078 00102$:
                           2079 ;/Users/casa/Desktop/MSX1-MSX2-ZX-asm-basic-watchmen/MSX2/C/src/sys/render.c:58: PutSprite( player->plane, player_right_walking_pattern, player->x,player->y,  0);
   0969 AF            [ 4] 2080 	xor	a, a
   096A F5            [11] 2081 	push	af
   096B 33            [ 6] 2082 	inc	sp
   096C C5            [11] 2083 	push	bc
   096D 33            [ 6] 2084 	inc	sp
   096E 43            [ 4] 2085 	ld	b, e
   096F 0E 0C         [ 7] 2086 	ld	c,#0x0c
   0971 C5            [11] 2087 	push	bc
   0972 D5            [11] 2088 	push	de
   0973 33            [ 6] 2089 	inc	sp
   0974 CDr00r00      [17] 2090 	call	_PutSprite
   0977 F1            [10] 2091 	pop	af
   0978 F1            [10] 2092 	pop	af
   0979 33            [ 6] 2093 	inc	sp
   097A 18 53         [12] 2094 	jr	00122$
   097C                    2095 00116$:
                           2096 ;/Users/casa/Desktop/MSX1-MSX2-ZX-asm-basic-watchmen/MSX2/C/src/sys/render.c:62: }else if(player->dir==7){
   097C DD 7E F9      [19] 2097 	ld	a, -7 (ix)
   097F D6 07         [ 7] 2098 	sub	a, #0x07
   0981 20 4C         [12] 2099 	jr	NZ,00122$
                           2100 ;/Users/casa/Desktop/MSX1-MSX2-ZX-asm-basic-watchmen/MSX2/C/src/sys/render.c:63: if (player->jump==1){
   0983 4E            [ 7] 2101 	ld	c, (hl)
                           2102 ;/Users/casa/Desktop/MSX1-MSX2-ZX-asm-basic-watchmen/MSX2/C/src/sys/render.c:50: PutSprite( player->plane, player_up1_pattern, player->x,player->y,0 );
   0984 DD 6E FA      [19] 2103 	ld	l, -6 (ix)
   0987 DD 66 FB      [19] 2104 	ld	h, -5 (ix)
   098A 46            [ 7] 2105 	ld	b, (hl)
   098B 1A            [ 7] 2106 	ld	a, (de)
   098C 57            [ 4] 2107 	ld	d, a
   098D DD 6E FC      [19] 2108 	ld	l, -4 (ix)
   0990 DD 66 FD      [19] 2109 	ld	h, -3 (ix)
   0993 5E            [ 7] 2110 	ld	e, (hl)
                           2111 ;/Users/casa/Desktop/MSX1-MSX2-ZX-asm-basic-watchmen/MSX2/C/src/sys/render.c:63: if (player->jump==1){
   0994 0D            [ 4] 2112 	dec	c
   0995 20 10         [12] 2113 	jr	NZ,00111$
                           2114 ;/Users/casa/Desktop/MSX1-MSX2-ZX-asm-basic-watchmen/MSX2/C/src/sys/render.c:64: PutSprite( player->plane, player_jump_left_pattern, player->x,player->y,0 );
   0997 AF            [ 4] 2115 	xor	a, a
   0998 F5            [11] 2116 	push	af
   0999 33            [ 6] 2117 	inc	sp
   099A 4A            [ 4] 2118 	ld	c, d
   099B C5            [11] 2119 	push	bc
   099C 16 18         [ 7] 2120 	ld	d,#0x18
   099E D5            [11] 2121 	push	de
   099F CDr00r00      [17] 2122 	call	_PutSprite
   09A2 F1            [10] 2123 	pop	af
   09A3 F1            [10] 2124 	pop	af
   09A4 33            [ 6] 2125 	inc	sp
   09A5 18 28         [12] 2126 	jr	00122$
   09A7                    2127 00111$:
                           2128 ;/Users/casa/Desktop/MSX1-MSX2-ZX-asm-basic-watchmen/MSX2/C/src/sys/render.c:66: if(player->andando ==0){
   09A7 DD 6E FE      [19] 2129 	ld	l, -2 (ix)
   09AA DD 66 FF      [19] 2130 	ld	h, -1 (ix)
   09AD 7E            [ 7] 2131 	ld	a, (hl)
   09AE B7            [ 4] 2132 	or	a, a
   09AF 20 10         [12] 2133 	jr	NZ,00108$
                           2134 ;/Users/casa/Desktop/MSX1-MSX2-ZX-asm-basic-watchmen/MSX2/C/src/sys/render.c:67: PutSprite( player->plane, player_left_pattern, player->x,player->y, 0 );
   09B1 AF            [ 4] 2135 	xor	a, a
   09B2 F5            [11] 2136 	push	af
   09B3 33            [ 6] 2137 	inc	sp
   09B4 4A            [ 4] 2138 	ld	c, d
   09B5 C5            [11] 2139 	push	bc
   09B6 AF            [ 4] 2140 	xor	a, a
   09B7 57            [ 4] 2141 	ld	d,a
   09B8 D5            [11] 2142 	push	de
   09B9 CDr00r00      [17] 2143 	call	_PutSprite
   09BC F1            [10] 2144 	pop	af
   09BD F1            [10] 2145 	pop	af
   09BE 33            [ 6] 2146 	inc	sp
   09BF 18 0E         [12] 2147 	jr	00122$
   09C1                    2148 00108$:
                           2149 ;/Users/casa/Desktop/MSX1-MSX2-ZX-asm-basic-watchmen/MSX2/C/src/sys/render.c:69: PutSprite( player->plane, player_left_walking_pattern, player->x,player->y,  0 );
   09C1 AF            [ 4] 2150 	xor	a, a
   09C2 F5            [11] 2151 	push	af
   09C3 33            [ 6] 2152 	inc	sp
   09C4 4A            [ 4] 2153 	ld	c, d
   09C5 C5            [11] 2154 	push	bc
   09C6 16 04         [ 7] 2155 	ld	d,#0x04
   09C8 D5            [11] 2156 	push	de
   09C9 CDr00r00      [17] 2157 	call	_PutSprite
   09CC F1            [10] 2158 	pop	af
   09CD F1            [10] 2159 	pop	af
   09CE 33            [ 6] 2160 	inc	sp
   09CF                    2161 00122$:
                           2162 ;/Users/casa/Desktop/MSX1-MSX2-ZX-asm-basic-watchmen/MSX2/C/src/sys/render.c:73: }
   09CF DD F9         [10] 2163 	ld	sp, ix
   09D1 DD E1         [14] 2164 	pop	ix
   09D3 C9            [10] 2165 	ret
                           2166 ;/Users/casa/Desktop/MSX1-MSX2-ZX-asm-basic-watchmen/MSX2/C/src/sys/render.c:77: void sys_render_update_enemy(TEntity *enemy){   
                           2167 ;	---------------------------------
                           2168 ; Function sys_render_update_enemy
                           2169 ; ---------------------------------
   09D4                    2170 _sys_render_update_enemy::
   09D4 CDr00r00      [17] 2171 	call	___sdcc_enter_ix
   09D7 F5            [11] 2172 	push	af
   09D8 F5            [11] 2173 	push	af
   09D9 F5            [11] 2174 	push	af
                           2175 ;/Users/casa/Desktop/MSX1-MSX2-ZX-asm-basic-watchmen/MSX2/C/src/sys/render.c:79: sys_anim_update(enemy);
   09DA DD 6E 04      [19] 2176 	ld	l, 4 (ix)
   09DD DD 66 05      [19] 2177 	ld	h, 5 (ix)
   09E0 E5            [11] 2178 	push	hl
   09E1 CDrC3r01      [17] 2179 	call	_sys_anim_update
   09E4 F1            [10] 2180 	pop	af
                           2181 ;/Users/casa/Desktop/MSX1-MSX2-ZX-asm-basic-watchmen/MSX2/C/src/sys/render.c:81: if (enemy->dir==3 && enemy->x<256 && enemy->x>0){
   09E5 DD 5E 04      [19] 2182 	ld	e, 4 (ix)
   09E8 DD 56 05      [19] 2183 	ld	d, 5 (ix)
   09EB 6B            [ 4] 2184 	ld	l, e
   09EC 62            [ 4] 2185 	ld	h, d
   09ED 01 0C 00      [10] 2186 	ld	bc, #0x000c
   09F0 09            [11] 2187 	add	hl, bc
   09F1 4E            [ 7] 2188 	ld	c, (hl)
   09F2 21 02 00      [10] 2189 	ld	hl, #0x0002
   09F5 19            [11] 2190 	add	hl, de
   09F6 E3            [19] 2191 	ex	(sp), hl
                           2192 ;/Users/casa/Desktop/MSX1-MSX2-ZX-asm-basic-watchmen/MSX2/C/src/sys/render.c:82: if (enemy->andando){
   09F7 21 0D 00      [10] 2193 	ld	hl, #0x000d
   09FA 19            [11] 2194 	add	hl, de
   09FB DD 75 FC      [19] 2195 	ld	-4 (ix), l
   09FE DD 74 FD      [19] 2196 	ld	-3 (ix), h
                           2197 ;/Users/casa/Desktop/MSX1-MSX2-ZX-asm-basic-watchmen/MSX2/C/src/sys/render.c:83: PutSprite(enemy->plane,enemy1_right_pattern,enemy->x,enemy->y,0);
   0A01 21 04 00      [10] 2198 	ld	hl, #0x0004
   0A04 19            [11] 2199 	add	hl, de
   0A05 DD 75 FE      [19] 2200 	ld	-2 (ix), l
   0A08 DD 74 FF      [19] 2201 	ld	-1 (ix), h
   0A0B EB            [ 4] 2202 	ex	de,hl
   0A0C 11 11 00      [10] 2203 	ld	de, #0x0011
   0A0F 19            [11] 2204 	add	hl, de
   0A10 46            [ 7] 2205 	ld	b, (hl)
                           2206 ;/Users/casa/Desktop/MSX1-MSX2-ZX-asm-basic-watchmen/MSX2/C/src/sys/render.c:81: if (enemy->dir==3 && enemy->x<256 && enemy->x>0){
   0A11 79            [ 4] 2207 	ld	a, c
   0A12 D6 03         [ 7] 2208 	sub	a, #0x03
   0A14 20 4F         [12] 2209 	jr	NZ,00113$
   0A16 E1            [10] 2210 	pop	hl
   0A17 E5            [11] 2211 	push	hl
   0A18 5E            [ 7] 2212 	ld	e, (hl)
   0A19 23            [ 6] 2213 	inc	hl
   0A1A 56            [ 7] 2214 	ld	d, (hl)
   0A1B 7A            [ 4] 2215 	ld	a, d
   0A1C EE 80         [ 7] 2216 	xor	a, #0x80
   0A1E D6 81         [ 7] 2217 	sub	a, #0x81
   0A20 30 43         [12] 2218 	jr	NC,00113$
   0A22 AF            [ 4] 2219 	xor	a, a
   0A23 BB            [ 4] 2220 	cp	a, e
   0A24 9A            [ 4] 2221 	sbc	a, d
   0A25 E2r2Ar0A      [10] 2222 	jp	PO, 00161$
   0A28 EE 80         [ 7] 2223 	xor	a, #0x80
   0A2A                    2224 00161$:
   0A2A F2r65r0A      [10] 2225 	jp	P, 00113$
                           2226 ;/Users/casa/Desktop/MSX1-MSX2-ZX-asm-basic-watchmen/MSX2/C/src/sys/render.c:82: if (enemy->andando){
   0A2D DD 6E FC      [19] 2227 	ld	l, -4 (ix)
   0A30 DD 66 FD      [19] 2228 	ld	h, -3 (ix)
   0A33 7E            [ 7] 2229 	ld	a, (hl)
                           2230 ;/Users/casa/Desktop/MSX1-MSX2-ZX-asm-basic-watchmen/MSX2/C/src/sys/render.c:83: PutSprite(enemy->plane,enemy1_right_pattern,enemy->x,enemy->y,0);
   0A34 DD 6E FE      [19] 2231 	ld	l, -2 (ix)
   0A37 DD 66 FF      [19] 2232 	ld	h, -1 (ix)
   0A3A 56            [ 7] 2233 	ld	d, (hl)
                           2234 ;/Users/casa/Desktop/MSX1-MSX2-ZX-asm-basic-watchmen/MSX2/C/src/sys/render.c:82: if (enemy->andando){
   0A3B B7            [ 4] 2235 	or	a, a
   0A3C 28 14         [12] 2236 	jr	Z,00102$
                           2237 ;/Users/casa/Desktop/MSX1-MSX2-ZX-asm-basic-watchmen/MSX2/C/src/sys/render.c:83: PutSprite(enemy->plane,enemy1_right_pattern,enemy->x,enemy->y,0);
   0A3E AF            [ 4] 2238 	xor	a, a
   0A3F F5            [11] 2239 	push	af
   0A40 33            [ 6] 2240 	inc	sp
   0A41 D5            [11] 2241 	push	de
   0A42 33            [ 6] 2242 	inc	sp
   0A43 53            [ 4] 2243 	ld	d, e
   0A44 1E 20         [ 7] 2244 	ld	e,#0x20
   0A46 D5            [11] 2245 	push	de
   0A47 C5            [11] 2246 	push	bc
   0A48 33            [ 6] 2247 	inc	sp
   0A49 CDr00r00      [17] 2248 	call	_PutSprite
   0A4C F1            [10] 2249 	pop	af
   0A4D F1            [10] 2250 	pop	af
   0A4E 33            [ 6] 2251 	inc	sp
   0A4F C3rCBr0A      [10] 2252 	jp	00117$
   0A52                    2253 00102$:
                           2254 ;/Users/casa/Desktop/MSX1-MSX2-ZX-asm-basic-watchmen/MSX2/C/src/sys/render.c:85: PutSprite(enemy->plane,enemy1_right_walking_pattern,enemy->x,enemy->y,0);
   0A52 AF            [ 4] 2255 	xor	a, a
   0A53 F5            [11] 2256 	push	af
   0A54 33            [ 6] 2257 	inc	sp
   0A55 D5            [11] 2258 	push	de
   0A56 33            [ 6] 2259 	inc	sp
   0A57 53            [ 4] 2260 	ld	d, e
   0A58 1E 24         [ 7] 2261 	ld	e,#0x24
   0A5A D5            [11] 2262 	push	de
   0A5B C5            [11] 2263 	push	bc
   0A5C 33            [ 6] 2264 	inc	sp
   0A5D CDr00r00      [17] 2265 	call	_PutSprite
   0A60 F1            [10] 2266 	pop	af
   0A61 F1            [10] 2267 	pop	af
   0A62 33            [ 6] 2268 	inc	sp
   0A63 18 66         [12] 2269 	jr	00117$
   0A65                    2270 00113$:
                           2271 ;/Users/casa/Desktop/MSX1-MSX2-ZX-asm-basic-watchmen/MSX2/C/src/sys/render.c:88: }else if (enemy->dir==7 && enemy->x<256 && enemy->x>0){
   0A65 79            [ 4] 2272 	ld	a, c
   0A66 D6 07         [ 7] 2273 	sub	a, #0x07
   0A68 20 4F         [12] 2274 	jr	NZ,00108$
   0A6A E1            [10] 2275 	pop	hl
   0A6B E5            [11] 2276 	push	hl
   0A6C 5E            [ 7] 2277 	ld	e, (hl)
   0A6D 23            [ 6] 2278 	inc	hl
   0A6E 56            [ 7] 2279 	ld	d, (hl)
   0A6F 7A            [ 4] 2280 	ld	a, d
   0A70 EE 80         [ 7] 2281 	xor	a, #0x80
   0A72 D6 81         [ 7] 2282 	sub	a, #0x81
   0A74 30 43         [12] 2283 	jr	NC,00108$
   0A76 AF            [ 4] 2284 	xor	a, a
   0A77 BB            [ 4] 2285 	cp	a, e
   0A78 9A            [ 4] 2286 	sbc	a, d
   0A79 E2r7Er0A      [10] 2287 	jp	PO, 00164$
   0A7C EE 80         [ 7] 2288 	xor	a, #0x80
   0A7E                    2289 00164$:
   0A7E F2rB9r0A      [10] 2290 	jp	P, 00108$
                           2291 ;/Users/casa/Desktop/MSX1-MSX2-ZX-asm-basic-watchmen/MSX2/C/src/sys/render.c:89: if (enemy->andando){
   0A81 DD 6E FC      [19] 2292 	ld	l, -4 (ix)
   0A84 DD 66 FD      [19] 2293 	ld	h, -3 (ix)
   0A87 7E            [ 7] 2294 	ld	a, (hl)
                           2295 ;/Users/casa/Desktop/MSX1-MSX2-ZX-asm-basic-watchmen/MSX2/C/src/sys/render.c:90: PutSprite(enemy->plane,enemy1_left_pattern,enemy->x,enemy->y,0);
   0A88 53            [ 4] 2296 	ld	d, e
                           2297 ;/Users/casa/Desktop/MSX1-MSX2-ZX-asm-basic-watchmen/MSX2/C/src/sys/render.c:83: PutSprite(enemy->plane,enemy1_right_pattern,enemy->x,enemy->y,0);
   0A89 DD 6E FE      [19] 2298 	ld	l, -2 (ix)
   0A8C DD 66 FF      [19] 2299 	ld	h, -1 (ix)
   0A8F 66            [ 7] 2300 	ld	h, (hl)
                           2301 ;/Users/casa/Desktop/MSX1-MSX2-ZX-asm-basic-watchmen/MSX2/C/src/sys/render.c:89: if (enemy->andando){
   0A90 B7            [ 4] 2302 	or	a, a
   0A91 28 13         [12] 2303 	jr	Z,00105$
                           2304 ;/Users/casa/Desktop/MSX1-MSX2-ZX-asm-basic-watchmen/MSX2/C/src/sys/render.c:90: PutSprite(enemy->plane,enemy1_left_pattern,enemy->x,enemy->y,0);
   0A93 AF            [ 4] 2305 	xor	a, a
   0A94 F5            [11] 2306 	push	af
   0A95 33            [ 6] 2307 	inc	sp
   0A96 6A            [ 4] 2308 	ld	l, d
   0A97 E5            [11] 2309 	push	hl
   0A98 3E 28         [ 7] 2310 	ld	a, #0x28
   0A9A F5            [11] 2311 	push	af
   0A9B 33            [ 6] 2312 	inc	sp
   0A9C C5            [11] 2313 	push	bc
   0A9D 33            [ 6] 2314 	inc	sp
   0A9E CDr00r00      [17] 2315 	call	_PutSprite
   0AA1 F1            [10] 2316 	pop	af
   0AA2 F1            [10] 2317 	pop	af
   0AA3 33            [ 6] 2318 	inc	sp
   0AA4 18 25         [12] 2319 	jr	00117$
   0AA6                    2320 00105$:
                           2321 ;/Users/casa/Desktop/MSX1-MSX2-ZX-asm-basic-watchmen/MSX2/C/src/sys/render.c:92: PutSprite(enemy->plane,enemy1_left_walking_pattern,enemy->x,enemy->y,0);
   0AA6 AF            [ 4] 2322 	xor	a, a
   0AA7 F5            [11] 2323 	push	af
   0AA8 33            [ 6] 2324 	inc	sp
   0AA9 6A            [ 4] 2325 	ld	l, d
   0AAA E5            [11] 2326 	push	hl
   0AAB 3E 2C         [ 7] 2327 	ld	a, #0x2c
   0AAD F5            [11] 2328 	push	af
   0AAE 33            [ 6] 2329 	inc	sp
   0AAF C5            [11] 2330 	push	bc
   0AB0 33            [ 6] 2331 	inc	sp
   0AB1 CDr00r00      [17] 2332 	call	_PutSprite
   0AB4 F1            [10] 2333 	pop	af
   0AB5 F1            [10] 2334 	pop	af
   0AB6 33            [ 6] 2335 	inc	sp
   0AB7 18 12         [12] 2336 	jr	00117$
   0AB9                    2337 00108$:
                           2338 ;/Users/casa/Desktop/MSX1-MSX2-ZX-asm-basic-watchmen/MSX2/C/src/sys/render.c:95: PutSprite(enemy->plane,enemy1_left_walking_pattern,0,212,0);
   0AB9 AF            [ 4] 2339 	xor	a, a
   0ABA 57            [ 4] 2340 	ld	d,a
   0ABB 1E D4         [ 7] 2341 	ld	e,#0xd4
   0ABD D5            [11] 2342 	push	de
   0ABE AF            [ 4] 2343 	xor	a, a
   0ABF 57            [ 4] 2344 	ld	d,a
   0AC0 1E 2C         [ 7] 2345 	ld	e,#0x2c
   0AC2 D5            [11] 2346 	push	de
   0AC3 C5            [11] 2347 	push	bc
   0AC4 33            [ 6] 2348 	inc	sp
   0AC5 CDr00r00      [17] 2349 	call	_PutSprite
   0AC8 F1            [10] 2350 	pop	af
   0AC9 F1            [10] 2351 	pop	af
   0ACA 33            [ 6] 2352 	inc	sp
   0ACB                    2353 00117$:
                           2354 ;/Users/casa/Desktop/MSX1-MSX2-ZX-asm-basic-watchmen/MSX2/C/src/sys/render.c:97: }
   0ACB DD F9         [10] 2355 	ld	sp, ix
   0ACD DD E1         [14] 2356 	pop	ix
   0ACF C9            [10] 2357 	ret
                           2358 ;/Users/casa/Desktop/MSX1-MSX2-ZX-asm-basic-watchmen/MSX2/C/src/sys/render.c:104: void sys_render_update_object(TEntity *object){
                           2359 ;	---------------------------------
                           2360 ; Function sys_render_update_object
                           2361 ; ---------------------------------
   0AD0                    2362 _sys_render_update_object::
   0AD0 CDr00r00      [17] 2363 	call	___sdcc_enter_ix
                           2364 ;/Users/casa/Desktop/MSX1-MSX2-ZX-asm-basic-watchmen/MSX2/C/src/sys/render.c:105: PutSprite(object->plane,object_money_pattern,object->x,object->y,0);
   0AD3 DD 4E 04      [19] 2365 	ld	c, 4 (ix)
   0AD6 DD 46 05      [19] 2366 	ld	b, 5 (ix)
   0AD9 69            [ 4] 2367 	ld	l, c
   0ADA 60            [ 4] 2368 	ld	h, b
   0ADB 11 04 00      [10] 2369 	ld	de, #0x0004
   0ADE 19            [11] 2370 	add	hl, de
   0ADF 5E            [ 7] 2371 	ld	e, (hl)
   0AE0 69            [ 4] 2372 	ld	l, c
   0AE1 60            [ 4] 2373 	ld	h, b
   0AE2 23            [ 6] 2374 	inc	hl
   0AE3 23            [ 6] 2375 	inc	hl
   0AE4 56            [ 7] 2376 	ld	d, (hl)
   0AE5 69            [ 4] 2377 	ld	l, c
   0AE6 60            [ 4] 2378 	ld	h, b
   0AE7 01 11 00      [10] 2379 	ld	bc, #0x0011
   0AEA 09            [11] 2380 	add	hl, bc
   0AEB 46            [ 7] 2381 	ld	b, (hl)
   0AEC AF            [ 4] 2382 	xor	a, a
   0AED F5            [11] 2383 	push	af
   0AEE 33            [ 6] 2384 	inc	sp
   0AEF 7B            [ 4] 2385 	ld	a, e
   0AF0 F5            [11] 2386 	push	af
   0AF1 33            [ 6] 2387 	inc	sp
   0AF2 D5            [11] 2388 	push	de
   0AF3 33            [ 6] 2389 	inc	sp
   0AF4 3E 30         [ 7] 2390 	ld	a, #0x30
   0AF6 F5            [11] 2391 	push	af
   0AF7 33            [ 6] 2392 	inc	sp
   0AF8 C5            [11] 2393 	push	bc
   0AF9 33            [ 6] 2394 	inc	sp
   0AFA CDr00r00      [17] 2395 	call	_PutSprite
   0AFD F1            [10] 2396 	pop	af
   0AFE F1            [10] 2397 	pop	af
   0AFF 33            [ 6] 2398 	inc	sp
                           2399 ;/Users/casa/Desktop/MSX1-MSX2-ZX-asm-basic-watchmen/MSX2/C/src/sys/render.c:106: }
   0B00 DD E1         [14] 2400 	pop	ix
   0B02 C9            [10] 2401 	ret
                           2402 ;/Users/casa/Desktop/MSX1-MSX2-ZX-asm-basic-watchmen/MSX2/C/src/sys/ai.c:16: void sys_ai_init(){
                           2403 ;	---------------------------------
                           2404 ; Function sys_ai_init
                           2405 ; ---------------------------------
   0B03                    2406 _sys_ai_init::
                           2407 ;/Users/casa/Desktop/MSX1-MSX2-ZX-asm-basic-watchmen/MSX2/C/src/sys/ai.c:17: sys_ai_contador=0;
   0B03 21 00 00      [10] 2408 	ld	hl, #0x0000
   0B06 22rDCr6B      [16] 2409 	ld	(_sys_ai_contador), hl
                           2410 ;/Users/casa/Desktop/MSX1-MSX2-ZX-asm-basic-watchmen/MSX2/C/src/sys/ai.c:18: }
   0B09 C9            [10] 2411 	ret
                           2412 ;/Users/casa/Desktop/MSX1-MSX2-ZX-asm-basic-watchmen/MSX2/C/src/sys/ai.c:21: void sys_ai_update(TEntity *entity){
                           2413 ;	---------------------------------
                           2414 ; Function sys_ai_update
                           2415 ; ---------------------------------
   0B0A                    2416 _sys_ai_update::
                           2417 ;/Users/casa/Desktop/MSX1-MSX2-ZX-asm-basic-watchmen/MSX2/C/src/sys/ai.c:22: if (entity->type==entity_type_enemy1)sys_ai_update_enemy_behavior_1(entity);
   0B0A D1            [10] 2418 	pop	de
   0B0B C1            [10] 2419 	pop	bc
   0B0C C5            [11] 2420 	push	bc
   0B0D D5            [11] 2421 	push	de
   0B0E 0A            [ 7] 2422 	ld	a, (bc)
   0B0F D6 02         [ 7] 2423 	sub	a, #0x02
   0B11 C0            [11] 2424 	ret	NZ
   0B12 C5            [11] 2425 	push	bc
   0B13 CDr18r0B      [17] 2426 	call	_sys_ai_update_enemy_behavior_1
   0B16 F1            [10] 2427 	pop	af
                           2428 ;/Users/casa/Desktop/MSX1-MSX2-ZX-asm-basic-watchmen/MSX2/C/src/sys/ai.c:23: if (entity->type==entity_type_boss){
                           2429 ;/Users/casa/Desktop/MSX1-MSX2-ZX-asm-basic-watchmen/MSX2/C/src/sys/ai.c:26: }
   0B17 C9            [10] 2430 	ret
                           2431 ;/Users/casa/Desktop/MSX1-MSX2-ZX-asm-basic-watchmen/MSX2/C/src/sys/ai.c:28: void sys_ai_update_enemy_behavior_1(TEntity *enemy){
                           2432 ;	---------------------------------
                           2433 ; Function sys_ai_update_enemy_behavior_1
                           2434 ; ---------------------------------
   0B18                    2435 _sys_ai_update_enemy_behavior_1::
   0B18 CDr00r00      [17] 2436 	call	___sdcc_enter_ix
   0B1B F5            [11] 2437 	push	af
   0B1C F5            [11] 2438 	push	af
   0B1D 3B            [ 6] 2439 	dec	sp
                           2440 ;/Users/casa/Desktop/MSX1-MSX2-ZX-asm-basic-watchmen/MSX2/C/src/sys/ai.c:40: if(enemy->dir==7){
   0B1E DD 5E 04      [19] 2441 	ld	e, 4 (ix)
   0B21 DD 56 05      [19] 2442 	ld	d, 5 (ix)
   0B24 21 0C 00      [10] 2443 	ld	hl, #0x000c
   0B27 19            [11] 2444 	add	hl, de
   0B28 E3            [19] 2445 	ex	(sp), hl
   0B29 E1            [10] 2446 	pop	hl
   0B2A E5            [11] 2447 	push	hl
   0B2B 7E            [ 7] 2448 	ld	a, (hl)
   0B2C DD 77 FD      [19] 2449 	ld	-3 (ix), a
                           2450 ;/Users/casa/Desktop/MSX1-MSX2-ZX-asm-basic-watchmen/MSX2/C/src/sys/ai.c:41: enemy->x-=enemy->vx;
   0B2F 4B            [ 4] 2451 	ld	c, e
   0B30 42            [ 4] 2452 	ld	b, d
   0B31 03            [ 6] 2453 	inc	bc
   0B32 03            [ 6] 2454 	inc	bc
   0B33 21 0A 00      [10] 2455 	ld	hl, #0x000a
   0B36 19            [11] 2456 	add	hl, de
   0B37 EB            [ 4] 2457 	ex	de, hl
                           2458 ;/Users/casa/Desktop/MSX1-MSX2-ZX-asm-basic-watchmen/MSX2/C/src/sys/ai.c:46: if(enemy->x<=8) enemy->dir=3;
   0B38 0A            [ 7] 2459 	ld	a, (bc)
   0B39 DD 77 FE      [19] 2460 	ld	-2 (ix), a
   0B3C 03            [ 6] 2461 	inc	bc
   0B3D 0A            [ 7] 2462 	ld	a, (bc)
   0B3E DD 77 FF      [19] 2463 	ld	-1 (ix), a
   0B41 0B            [ 6] 2464 	dec	bc
                           2465 ;/Users/casa/Desktop/MSX1-MSX2-ZX-asm-basic-watchmen/MSX2/C/src/sys/ai.c:40: if(enemy->dir==7){
   0B42 DD 7E FD      [19] 2466 	ld	a, -3 (ix)
   0B45 D6 07         [ 7] 2467 	sub	a, #0x07
   0B47 20 16         [12] 2468 	jr	NZ,00104$
                           2469 ;/Users/casa/Desktop/MSX1-MSX2-ZX-asm-basic-watchmen/MSX2/C/src/sys/ai.c:41: enemy->x-=enemy->vx;
   0B49 1A            [ 7] 2470 	ld	a, (de)
   0B4A 5F            [ 4] 2471 	ld	e, a
   0B4B 17            [ 4] 2472 	rla
   0B4C 9F            [ 4] 2473 	sbc	a, a
   0B4D 57            [ 4] 2474 	ld	d, a
   0B4E DD 7E FE      [19] 2475 	ld	a, -2 (ix)
   0B51 93            [ 4] 2476 	sub	a, e
   0B52 5F            [ 4] 2477 	ld	e, a
   0B53 DD 7E FF      [19] 2478 	ld	a, -1 (ix)
   0B56 9A            [ 4] 2479 	sbc	a, d
   0B57 57            [ 4] 2480 	ld	d, a
   0B58 69            [ 4] 2481 	ld	l, c
   0B59 60            [ 4] 2482 	ld	h, b
   0B5A 73            [ 7] 2483 	ld	(hl), e
   0B5B 23            [ 6] 2484 	inc	hl
   0B5C 72            [ 7] 2485 	ld	(hl), d
   0B5D 18 1B         [12] 2486 	jr	00105$
   0B5F                    2487 00104$:
                           2488 ;/Users/casa/Desktop/MSX1-MSX2-ZX-asm-basic-watchmen/MSX2/C/src/sys/ai.c:42: }else if(enemy->dir==3){
   0B5F DD 7E FD      [19] 2489 	ld	a, -3 (ix)
   0B62 D6 03         [ 7] 2490 	sub	a, #0x03
   0B64 20 14         [12] 2491 	jr	NZ,00105$
                           2492 ;/Users/casa/Desktop/MSX1-MSX2-ZX-asm-basic-watchmen/MSX2/C/src/sys/ai.c:43: enemy->x+=enemy->vx;
   0B66 1A            [ 7] 2493 	ld	a, (de)
   0B67 5F            [ 4] 2494 	ld	e, a
   0B68 17            [ 4] 2495 	rla
   0B69 9F            [ 4] 2496 	sbc	a, a
   0B6A 57            [ 4] 2497 	ld	d, a
   0B6B 7B            [ 4] 2498 	ld	a, e
   0B6C DD 86 FE      [19] 2499 	add	a, -2 (ix)
   0B6F 5F            [ 4] 2500 	ld	e, a
   0B70 7A            [ 4] 2501 	ld	a, d
   0B71 DD 8E FF      [19] 2502 	adc	a, -1 (ix)
   0B74 57            [ 4] 2503 	ld	d, a
   0B75 69            [ 4] 2504 	ld	l, c
   0B76 60            [ 4] 2505 	ld	h, b
   0B77 73            [ 7] 2506 	ld	(hl), e
   0B78 23            [ 6] 2507 	inc	hl
   0B79 72            [ 7] 2508 	ld	(hl), d
   0B7A                    2509 00105$:
                           2510 ;/Users/casa/Desktop/MSX1-MSX2-ZX-asm-basic-watchmen/MSX2/C/src/sys/ai.c:46: if(enemy->x<=8) enemy->dir=3;
   0B7A 69            [ 4] 2511 	ld	l, c
   0B7B 60            [ 4] 2512 	ld	h, b
   0B7C 5E            [ 7] 2513 	ld	e, (hl)
   0B7D 23            [ 6] 2514 	inc	hl
   0B7E 56            [ 7] 2515 	ld	d, (hl)
   0B7F 3E 08         [ 7] 2516 	ld	a, #0x08
   0B81 BB            [ 4] 2517 	cp	a, e
   0B82 3E 00         [ 7] 2518 	ld	a, #0x00
   0B84 9A            [ 4] 2519 	sbc	a, d
   0B85 E2r8Ar0B      [10] 2520 	jp	PO, 00136$
   0B88 EE 80         [ 7] 2521 	xor	a, #0x80
   0B8A                    2522 00136$:
   0B8A FAr91r0B      [10] 2523 	jp	M, 00107$
   0B8D E1            [10] 2524 	pop	hl
   0B8E E5            [11] 2525 	push	hl
   0B8F 36 03         [10] 2526 	ld	(hl), #0x03
   0B91                    2527 00107$:
                           2528 ;/Users/casa/Desktop/MSX1-MSX2-ZX-asm-basic-watchmen/MSX2/C/src/sys/ai.c:47: if(enemy->x>=256-16) enemy->dir=7;
   0B91 69            [ 4] 2529 	ld	l, c
   0B92 60            [ 4] 2530 	ld	h, b
   0B93 4E            [ 7] 2531 	ld	c, (hl)
   0B94 23            [ 6] 2532 	inc	hl
   0B95 46            [ 7] 2533 	ld	b, (hl)
   0B96 79            [ 4] 2534 	ld	a, c
   0B97 D6 F0         [ 7] 2535 	sub	a, #0xf0
   0B99 78            [ 4] 2536 	ld	a, b
   0B9A 17            [ 4] 2537 	rla
   0B9B 3F            [ 4] 2538 	ccf
   0B9C 1F            [ 4] 2539 	rra
   0B9D DE 80         [ 7] 2540 	sbc	a, #0x80
   0B9F 38 04         [12] 2541 	jr	C,00110$
   0BA1 E1            [10] 2542 	pop	hl
   0BA2 E5            [11] 2543 	push	hl
   0BA3 36 07         [10] 2544 	ld	(hl), #0x07
   0BA5                    2545 00110$:
                           2546 ;/Users/casa/Desktop/MSX1-MSX2-ZX-asm-basic-watchmen/MSX2/C/src/sys/ai.c:49: }
   0BA5 DD F9         [10] 2547 	ld	sp, ix
   0BA7 DD E1         [14] 2548 	pop	ix
   0BA9 C9            [10] 2549 	ret
                           2550 ;/Users/casa/Desktop/MSX1-MSX2-ZX-asm-basic-watchmen/MSX2/C/src/sys/ai.c:51: void sys_ai_update_enemy_boss1(TEntity *enemy){
                           2551 ;	---------------------------------
                           2552 ; Function sys_ai_update_enemy_boss1
                           2553 ; ---------------------------------
   0BAA                    2554 _sys_ai_update_enemy_boss1::
   0BAA CDr00r00      [17] 2555 	call	___sdcc_enter_ix
   0BAD F5            [11] 2556 	push	af
   0BAE F5            [11] 2557 	push	af
   0BAF F5            [11] 2558 	push	af
                           2559 ;/Users/casa/Desktop/MSX1-MSX2-ZX-asm-basic-watchmen/MSX2/C/src/sys/ai.c:52: ++sys_ai_contador;
   0BB0 2ArDCr6B      [16] 2560 	ld	hl, (_sys_ai_contador)
   0BB3 23            [ 6] 2561 	inc	hl
   0BB4 22rDCr6B      [16] 2562 	ld	(_sys_ai_contador), hl
                           2563 ;/Users/casa/Desktop/MSX1-MSX2-ZX-asm-basic-watchmen/MSX2/C/src/sys/ai.c:53: enemy->old_x=enemy->x;
   0BB7 DD 4E 04      [19] 2564 	ld	c, 4 (ix)
   0BBA DD 46 05      [19] 2565 	ld	b, 5 (ix)
   0BBD 21 06 00      [10] 2566 	ld	hl, #0x0006
   0BC0 09            [11] 2567 	add	hl, bc
   0BC1 EB            [ 4] 2568 	ex	de, hl
   0BC2 21 02 00      [10] 2569 	ld	hl, #0x0002
   0BC5 09            [11] 2570 	add	hl, bc
   0BC6 E3            [19] 2571 	ex	(sp), hl
   0BC7 E1            [10] 2572 	pop	hl
   0BC8 E5            [11] 2573 	push	hl
   0BC9 7E            [ 7] 2574 	ld	a, (hl)
   0BCA 12            [ 7] 2575 	ld	(de), a
                           2576 ;/Users/casa/Desktop/MSX1-MSX2-ZX-asm-basic-watchmen/MSX2/C/src/sys/ai.c:54: enemy->old_y=enemy->y;
   0BCB 21 07 00      [10] 2577 	ld	hl, #0x0007
   0BCE 09            [11] 2578 	add	hl, bc
   0BCF EB            [ 4] 2579 	ex	de, hl
   0BD0 21 04 00      [10] 2580 	ld	hl, #0x0004
   0BD3 09            [11] 2581 	add	hl, bc
   0BD4 DD 75 FC      [19] 2582 	ld	-4 (ix), l
   0BD7 DD 74 FD      [19] 2583 	ld	-3 (ix), h
   0BDA 7E            [ 7] 2584 	ld	a, (hl)
   0BDB 12            [ 7] 2585 	ld	(de), a
                           2586 ;/Users/casa/Desktop/MSX1-MSX2-ZX-asm-basic-watchmen/MSX2/C/src/sys/ai.c:55: char aleatorio=rand()%(6-3)+3;
   0BDC C5            [11] 2587 	push	bc
   0BDD CDr00r00      [17] 2588 	call	_rand
   0BE0 C1            [10] 2589 	pop	bc
                           2590 ;/Users/casa/Desktop/MSX1-MSX2-ZX-asm-basic-watchmen/MSX2/C/src/sys/ai.c:56: if (sys_ai_contador<=3)enemy->x-=enemy->vx;
   0BE1 3E 03         [ 7] 2591 	ld	a, #0x03
   0BE3 FD 21rDCr6B   [14] 2592 	ld	iy, #_sys_ai_contador
   0BE7 FD BE 00      [19] 2593 	cp	a, 0 (iy)
   0BEA 3E 00         [ 7] 2594 	ld	a, #0x00
   0BEC FD 9E 01      [19] 2595 	sbc	a, 1 (iy)
   0BEF E2rF4r0B      [10] 2596 	jp	PO, 00125$
   0BF2 EE 80         [ 7] 2597 	xor	a, #0x80
   0BF4                    2598 00125$:
   0BF4 07            [ 4] 2599 	rlca
   0BF5 E6 01         [ 7] 2600 	and	a,#0x01
   0BF7 5F            [ 4] 2601 	ld	e, a
   0BF8 21 0A 00      [10] 2602 	ld	hl, #0x000a
   0BFB 09            [11] 2603 	add	hl, bc
   0BFC DD 75 FE      [19] 2604 	ld	-2 (ix), l
   0BFF DD 74 FF      [19] 2605 	ld	-1 (ix), h
   0C02 CB 43         [ 8] 2606 	bit	0, e
   0C04 20 1D         [12] 2607 	jr	NZ,00104$
   0C06 E1            [10] 2608 	pop	hl
   0C07 E5            [11] 2609 	push	hl
   0C08 5E            [ 7] 2610 	ld	e, (hl)
   0C09 23            [ 6] 2611 	inc	hl
   0C0A 56            [ 7] 2612 	ld	d, (hl)
   0C0B DD 6E FE      [19] 2613 	ld	l, -2 (ix)
   0C0E DD 66 FF      [19] 2614 	ld	h, -1 (ix)
   0C11 7E            [ 7] 2615 	ld	a, (hl)
   0C12 6F            [ 4] 2616 	ld	l, a
   0C13 17            [ 4] 2617 	rla
   0C14 9F            [ 4] 2618 	sbc	a, a
   0C15 67            [ 4] 2619 	ld	h, a
   0C16 7B            [ 4] 2620 	ld	a, e
   0C17 95            [ 4] 2621 	sub	a, l
   0C18 5F            [ 4] 2622 	ld	e, a
   0C19 7A            [ 4] 2623 	ld	a, d
   0C1A 9C            [ 4] 2624 	sbc	a, h
   0C1B 57            [ 4] 2625 	ld	d, a
   0C1C E1            [10] 2626 	pop	hl
   0C1D E5            [11] 2627 	push	hl
   0C1E 73            [ 7] 2628 	ld	(hl), e
   0C1F 23            [ 6] 2629 	inc	hl
   0C20 72            [ 7] 2630 	ld	(hl), d
   0C21 18 1B         [12] 2631 	jr	00105$
   0C23                    2632 00104$:
                           2633 ;/Users/casa/Desktop/MSX1-MSX2-ZX-asm-basic-watchmen/MSX2/C/src/sys/ai.c:57: else if (sys_ai_contador>3)enemy->x+=enemy->vx;
   0C23 7B            [ 4] 2634 	ld	a, e
   0C24 B7            [ 4] 2635 	or	a, a
   0C25 28 17         [12] 2636 	jr	Z,00105$
   0C27 E1            [10] 2637 	pop	hl
   0C28 E5            [11] 2638 	push	hl
   0C29 5E            [ 7] 2639 	ld	e, (hl)
   0C2A 23            [ 6] 2640 	inc	hl
   0C2B 56            [ 7] 2641 	ld	d, (hl)
   0C2C DD 6E FE      [19] 2642 	ld	l, -2 (ix)
   0C2F DD 66 FF      [19] 2643 	ld	h, -1 (ix)
   0C32 7E            [ 7] 2644 	ld	a, (hl)
   0C33 6F            [ 4] 2645 	ld	l, a
   0C34 17            [ 4] 2646 	rla
   0C35 9F            [ 4] 2647 	sbc	a, a
   0C36 67            [ 4] 2648 	ld	h, a
   0C37 19            [11] 2649 	add	hl, de
   0C38 EB            [ 4] 2650 	ex	de, hl
   0C39 E1            [10] 2651 	pop	hl
   0C3A E5            [11] 2652 	push	hl
   0C3B 73            [ 7] 2653 	ld	(hl), e
   0C3C 23            [ 6] 2654 	inc	hl
   0C3D 72            [ 7] 2655 	ld	(hl), d
   0C3E                    2656 00105$:
                           2657 ;/Users/casa/Desktop/MSX1-MSX2-ZX-asm-basic-watchmen/MSX2/C/src/sys/ai.c:60: enemy->vy=-enemy->vy ; 
   0C3E 21 0B 00      [10] 2658 	ld	hl, #0x000b
   0C41 09            [11] 2659 	add	hl, bc
   0C42 EB            [ 4] 2660 	ex	de, hl
                           2661 ;/Users/casa/Desktop/MSX1-MSX2-ZX-asm-basic-watchmen/MSX2/C/src/sys/ai.c:58: if (sys_ai_contador==6) {
   0C43 FD 21rDCr6B   [14] 2662 	ld	iy, #_sys_ai_contador
   0C47 FD 7E 00      [19] 2663 	ld	a, 0 (iy)
   0C4A D6 06         [ 7] 2664 	sub	a, #0x06
   0C4C FD B6 01      [19] 2665 	or	a, 1 (iy)
   0C4F 20 0A         [12] 2666 	jr	NZ,00107$
                           2667 ;/Users/casa/Desktop/MSX1-MSX2-ZX-asm-basic-watchmen/MSX2/C/src/sys/ai.c:60: enemy->vy=-enemy->vy ; 
   0C51 1A            [ 7] 2668 	ld	a, (de)
   0C52 ED 44         [ 8] 2669 	neg
   0C54 12            [ 7] 2670 	ld	(de), a
                           2671 ;/Users/casa/Desktop/MSX1-MSX2-ZX-asm-basic-watchmen/MSX2/C/src/sys/ai.c:61: sys_ai_contador=0;
   0C55 21 00 00      [10] 2672 	ld	hl, #0x0000
   0C58 22rDCr6B      [16] 2673 	ld	(_sys_ai_contador), hl
   0C5B                    2674 00107$:
                           2675 ;/Users/casa/Desktop/MSX1-MSX2-ZX-asm-basic-watchmen/MSX2/C/src/sys/ai.c:67: enemy->y+=enemy->vy ;
   0C5B DD 6E FC      [19] 2676 	ld	l, -4 (ix)
   0C5E DD 66 FD      [19] 2677 	ld	h, -3 (ix)
   0C61 4E            [ 7] 2678 	ld	c, (hl)
   0C62 23            [ 6] 2679 	inc	hl
   0C63 46            [ 7] 2680 	ld	b, (hl)
   0C64 1A            [ 7] 2681 	ld	a, (de)
   0C65 6F            [ 4] 2682 	ld	l, a
   0C66 17            [ 4] 2683 	rla
   0C67 9F            [ 4] 2684 	sbc	a, a
   0C68 67            [ 4] 2685 	ld	h, a
   0C69 09            [11] 2686 	add	hl, bc
   0C6A EB            [ 4] 2687 	ex	de, hl
   0C6B C1            [10] 2688 	pop	bc
   0C6C E1            [10] 2689 	pop	hl
   0C6D E5            [11] 2690 	push	hl
   0C6E C5            [11] 2691 	push	bc
   0C6F 73            [ 7] 2692 	ld	(hl), e
   0C70 23            [ 6] 2693 	inc	hl
   0C71 72            [ 7] 2694 	ld	(hl), d
                           2695 ;/Users/casa/Desktop/MSX1-MSX2-ZX-asm-basic-watchmen/MSX2/C/src/sys/ai.c:69: }
   0C72 DD F9         [10] 2696 	ld	sp, ix
   0C74 DD E1         [14] 2697 	pop	ix
   0C76 C9            [10] 2698 	ret
                           2699 ;src/man/game.c:62: void man_game_init(){
                           2700 ;	---------------------------------
                           2701 ; Function man_game_init
                           2702 ; ---------------------------------
   0C77                    2703 _man_game_init::
                           2704 ;src/man/game.c:64: sys_render_init();
   0C77 CDr5Fr08      [17] 2705 	call	_sys_render_init
                           2706 ;src/man/game.c:67: load_file_into_buffer_with_structure("LOADER.S05");
   0C7A 21r39r0D      [10] 2707 	ld	hl, #___str_1
   0C7D E5            [11] 2708 	push	hl
   0C7E CDrD9r01      [17] 2709 	call	_load_file_into_buffer_with_structure
                           2710 ;src/man/game.c:69: HMMC(&buffer[0], 0,0,256,212 ); 
   0C81 21 D4 00      [10] 2711 	ld	hl, #0x00d4
   0C84 E3            [19] 2712 	ex	(sp),hl
   0C85 21 00 01      [10] 2713 	ld	hl, #0x0100
   0C88 E5            [11] 2714 	push	hl
   0C89 26 00         [ 7] 2715 	ld	h, #0x00
   0C8B E5            [11] 2716 	push	hl
   0C8C 2E 00         [ 7] 2717 	ld	l, #0x00
   0C8E E5            [11] 2718 	push	hl
   0C8F 21rCEr01      [10] 2719 	ld	hl, #_buffer
   0C92 E5            [11] 2720 	push	hl
   0C93 CDr00r00      [17] 2721 	call	_HMMC
   0C96 21 0A 00      [10] 2722 	ld	hl, #10
   0C99 39            [11] 2723 	add	hl, sp
   0C9A F9            [ 6] 2724 	ld	sp, hl
                           2725 ;src/man/game.c:72: load_file_into_buffer("tileset.s05");
   0C9B 21r44r0D      [10] 2726 	ld	hl, #___str_2
   0C9E E5            [11] 2727 	push	hl
   0C9F CDr2Dr02      [17] 2728 	call	_load_file_into_buffer
                           2729 ;src/man/game.c:76: HMMC(&buffer[0], 0,256,256,212); 
   0CA2 21 D4 00      [10] 2730 	ld	hl, #0x00d4
   0CA5 E3            [19] 2731 	ex	(sp),hl
   0CA6 21 00 01      [10] 2732 	ld	hl, #0x0100
   0CA9 E5            [11] 2733 	push	hl
   0CAA 2E 00         [ 7] 2734 	ld	l, #0x00
   0CAC E5            [11] 2735 	push	hl
   0CAD 26 00         [ 7] 2736 	ld	h, #0x00
   0CAF E5            [11] 2737 	push	hl
   0CB0 21rCEr01      [10] 2738 	ld	hl, #_buffer
   0CB3 E5            [11] 2739 	push	hl
   0CB4 CDr00r00      [17] 2740 	call	_HMMC
   0CB7 21 0A 00      [10] 2741 	ld	hl, #10
   0CBA 39            [11] 2742 	add	hl, sp
   0CBB F9            [ 6] 2743 	ld	sp, hl
                           2744 ;src/man/game.c:78: load_file_into_buffer("sprites.bin");
   0CBC 21r50r0D      [10] 2745 	ld	hl, #___str_3
   0CBF E5            [11] 2746 	push	hl
   0CC0 CDr2Dr02      [17] 2747 	call	_load_file_into_buffer
   0CC3 F1            [10] 2748 	pop	af
                           2749 ;src/man/game.c:80: man_game_copiarSpritesVRAM();
   0CC4 CDrC2r13      [17] 2750 	call	_man_game_copiarSpritesVRAM
                           2751 ;src/man/game.c:86: InitPSG();
   0CC7 CDr00r00      [17] 2752 	call	_InitPSG
                           2753 ;src/man/game.c:87: man_game_cargar_buffer_musica();
   0CCA CDr47r14      [17] 2754 	call	_man_game_cargar_buffer_musica
                           2755 ;src/man/game.c:89: PT3Init (songBuffer+99, 0);
   0CCD AF            [ 4] 2756 	xor	a, a
   0CCE F5            [11] 2757 	push	af
   0CCF 33            [ 6] 2758 	inc	sp
   0CD0 21r1Dr71      [10] 2759 	ld	hl, #(_songBuffer + 0x0063)
   0CD3 E5            [11] 2760 	push	hl
   0CD4 CDr00r00      [17] 2761 	call	_PT3Init
                           2762 ;src/man/game.c:91: SetRealTimer(0);	
   0CD7 33            [ 6] 2763 	inc	sp
   0CD8 21 00 00      [10] 2764 	ld	hl,#0x0000
   0CDB E3            [19] 2765 	ex	(sp),hl
   0CDC CDr00r00      [17] 2766 	call	_SetRealTimer
   0CDF F1            [10] 2767 	pop	af
                           2768 ;src/man/game.c:92: KeySound(0);
   0CE0 AF            [ 4] 2769 	xor	a, a
   0CE1 F5            [11] 2770 	push	af
   0CE2 33            [ 6] 2771 	inc	sp
   0CE3 CDr00r00      [17] 2772 	call	_KeySound
   0CE6 33            [ 6] 2773 	inc	sp
                           2774 ;src/man/game.c:94: actual_world=0;
   0CE7 21rE9r71      [10] 2775 	ld	hl,#_actual_world + 0
   0CEA 36 00         [10] 2776 	ld	(hl), #0x00
                           2777 ;src/man/game.c:98: world_change=1;    
   0CEC 21rEAr71      [10] 2778 	ld	hl,#_world_change + 0
   0CEF 36 01         [10] 2779 	ld	(hl), #0x01
                           2780 ;src/man/game.c:101: player=sys_entity_create_player();
   0CF1 CDr84r00      [17] 2781 	call	_sys_entity_create_player
   0CF4 22rE7r71      [16] 2782 	ld	(_player), hl
                           2783 ;src/man/game.c:102: PutText(0,0, "Eres un vigilante y como siempre estas durmiendo te han robado.",0);
   0CF7 AF            [ 4] 2784 	xor	a, a
   0CF8 F5            [11] 2785 	push	af
   0CF9 33            [ 6] 2786 	inc	sp
   0CFA 21r5Cr0D      [10] 2787 	ld	hl, #___str_4
   0CFD E5            [11] 2788 	push	hl
   0CFE 21 00 00      [10] 2789 	ld	hl, #0x0000
   0D01 E5            [11] 2790 	push	hl
   0D02 2E 00         [ 7] 2791 	ld	l, #0x00
   0D04 E5            [11] 2792 	push	hl
   0D05 CDr00r00      [17] 2793 	call	_PutText
   0D08 F1            [10] 2794 	pop	af
   0D09 F1            [10] 2795 	pop	af
   0D0A F1            [10] 2796 	pop	af
   0D0B 33            [ 6] 2797 	inc	sp
                           2798 ;src/man/game.c:103: PutText(0,16, "Atrapa a todos los ladr0nes y recoge las monedas que han ido perdiendo.",0);
   0D0C AF            [ 4] 2799 	xor	a, a
   0D0D F5            [11] 2800 	push	af
   0D0E 33            [ 6] 2801 	inc	sp
   0D0F 21r9Cr0D      [10] 2802 	ld	hl, #___str_5
   0D12 E5            [11] 2803 	push	hl
   0D13 21 10 00      [10] 2804 	ld	hl, #0x0010
   0D16 E5            [11] 2805 	push	hl
   0D17 2E 00         [ 7] 2806 	ld	l, #0x00
   0D19 E5            [11] 2807 	push	hl
   0D1A CDr00r00      [17] 2808 	call	_PutText
   0D1D F1            [10] 2809 	pop	af
   0D1E F1            [10] 2810 	pop	af
   0D1F F1            [10] 2811 	pop	af
   0D20 33            [ 6] 2812 	inc	sp
                           2813 ;src/man/game.c:104: PutText(20,180, "Press any key to continue",0);
   0D21 AF            [ 4] 2814 	xor	a, a
   0D22 F5            [11] 2815 	push	af
   0D23 33            [ 6] 2816 	inc	sp
   0D24 21rE4r0D      [10] 2817 	ld	hl, #___str_6
   0D27 E5            [11] 2818 	push	hl
   0D28 21 B4 00      [10] 2819 	ld	hl, #0x00b4
   0D2B E5            [11] 2820 	push	hl
   0D2C 2E 14         [ 7] 2821 	ld	l, #0x14
   0D2E E5            [11] 2822 	push	hl
   0D2F CDr00r00      [17] 2823 	call	_PutText
   0D32 F1            [10] 2824 	pop	af
   0D33 F1            [10] 2825 	pop	af
   0D34 F1            [10] 2826 	pop	af
   0D35 33            [ 6] 2827 	inc	sp
                           2828 ;src/man/game.c:105: WaitKey();
                           2829 ;src/man/game.c:106: }
   0D36 C3r00r00      [10] 2830 	jp	_WaitKey
   0D39                    2831 ___str_1:
   0D39 4C 4F 41 44 45 52  2832 	.ascii "LOADER.S05"
        2E 53 30 35
   0D43 00                 2833 	.db 0x00
   0D44                    2834 ___str_2:
   0D44 74 69 6C 65 73 65  2835 	.ascii "tileset.s05"
        74 2E 73 30 35
   0D4F 00                 2836 	.db 0x00
   0D50                    2837 ___str_3:
   0D50 73 70 72 69 74 65  2838 	.ascii "sprites.bin"
        73 2E 62 69 6E
   0D5B 00                 2839 	.db 0x00
   0D5C                    2840 ___str_4:
   0D5C 45 72 65 73 20 75  2841 	.ascii "Eres un vigilante y como siempre estas durmiendo te han roba"
        6E 20 76 69 67 69
        6C 61 6E 74 65 20
        79 20 63 6F 6D 6F
        20 73 69 65 6D 70
        72 65 20 65 73 74
        61 73 20 64 75 72
        6D 69 65 6E 64 6F
        20 74 65 20 68 61
        6E 20 72 6F 62 61
   0D98 64 6F 2E           2842 	.ascii "do."
   0D9B 00                 2843 	.db 0x00
   0D9C                    2844 ___str_5:
   0D9C 41 74 72 61 70 61  2845 	.ascii "Atrapa a todos los ladr0nes y recoge las monedas que han ido"
        20 61 20 74 6F 64
        6F 73 20 6C 6F 73
        20 6C 61 64 72 30
        6E 65 73 20 79 20
        72 65 63 6F 67 65
        20 6C 61 73 20 6D
        6F 6E 65 64 61 73
        20 71 75 65 20 68
        61 6E 20 69 64 6F
   0DD8 20 70 65 72 64 69  2846 	.ascii " perdiendo."
        65 6E 64 6F 2E
   0DE3 00                 2847 	.db 0x00
   0DE4                    2848 ___str_6:
   0DE4 50 72 65 73 73 20  2849 	.ascii "Press any key to continue"
        61 6E 79 20 6B 65
        79 20 74 6F 20 63
        6F 6E 74 69 6E 75
        65
   0DFD 00                 2850 	.db 0x00
                           2851 ;src/man/game.c:108: void man_game_play(){
                           2852 ;	---------------------------------
                           2853 ; Function man_game_play
                           2854 ; ---------------------------------
   0DFE                    2855 _man_game_play::
   0DFE CDr00r00      [17] 2856 	call	___sdcc_enter_ix
   0E01 3B            [ 6] 2857 	dec	sp
                           2858 ;src/man/game.c:109: do{
   0E02                    2859 00119$:
                           2860 ;src/man/game.c:111: man_game_update();
   0E02 CDr91r0F      [17] 2861 	call	_man_game_update
                           2862 ;src/man/game.c:115: sys_physics_update(player);
   0E05 2ArE7r71      [16] 2863 	ld	hl, (_player)
   0E08 E5            [11] 2864 	push	hl
   0E09 CDrCAr04      [17] 2865 	call	_sys_physics_update
   0E0C F1            [10] 2866 	pop	af
                           2867 ;src/man/game.c:116: sys_render_update(player);
   0E0D 2ArE7r71      [16] 2868 	ld	hl, (_player)
   0E10 E5            [11] 2869 	push	hl
   0E11 CDr81r08      [17] 2870 	call	_sys_render_update
   0E14 F1            [10] 2871 	pop	af
                           2872 ;src/man/game.c:118: for (char i=0;i<sys_entity_get_num_enemies();++i){
   0E15 AF            [ 4] 2873 	xor	a, a
   0E16 DD 77 FF      [19] 2874 	ld	-1 (ix), a
   0E19                    2875 00123$:
   0E19 CDrACr01      [17] 2876 	call	_sys_entity_get_num_enemies
   0E1C DD 7E FF      [19] 2877 	ld	a, -1 (ix)
   0E1F 95            [ 4] 2878 	sub	a, l
   0E20 30 42         [12] 2879 	jr	NC,00103$
                           2880 ;src/man/game.c:119: TEntity *enemy=&array_enemies[i];
   0E22 DD 4E FF      [19] 2881 	ld	c, -1 (ix)
   0E25 06 00         [ 7] 2882 	ld	b, #0x00
   0E27 69            [ 4] 2883 	ld	l, c
   0E28 60            [ 4] 2884 	ld	h, b
   0E29 29            [11] 2885 	add	hl, hl
   0E2A 29            [11] 2886 	add	hl, hl
   0E2B 09            [11] 2887 	add	hl, bc
   0E2C 29            [11] 2888 	add	hl, hl
   0E2D 09            [11] 2889 	add	hl, bc
   0E2E 29            [11] 2890 	add	hl, hl
   0E2F 09            [11] 2891 	add	hl, bc
   0E30 EB            [ 4] 2892 	ex	de, hl
   0E31 2ArF7r71      [16] 2893 	ld	hl, (_array_enemies)
   0E34 19            [11] 2894 	add	hl, de
                           2895 ;src/man/game.c:121: sys_ai_update(enemy);
   0E35 E5            [11] 2896 	push	hl
   0E36 E5            [11] 2897 	push	hl
   0E37 CDr0Ar0B      [17] 2898 	call	_sys_ai_update
   0E3A F1            [10] 2899 	pop	af
   0E3B E1            [10] 2900 	pop	hl
                           2901 ;src/man/game.c:122: sys_render_update(enemy);
   0E3C E5            [11] 2902 	push	hl
   0E3D E5            [11] 2903 	push	hl
   0E3E CDr81r08      [17] 2904 	call	_sys_render_update
   0E41 F1            [10] 2905 	pop	af
   0E42 2ArE7r71      [16] 2906 	ld	hl, (_player)
   0E45 E5            [11] 2907 	push	hl
   0E46 CDr3Er04      [17] 2908 	call	_sys_collider_entity1_collider_entity
   0E49 F1            [10] 2909 	pop	af
   0E4A F1            [10] 2910 	pop	af
   0E4B 7D            [ 4] 2911 	ld	a, l
   0E4C B7            [ 4] 2912 	or	a, a
   0E4D 28 10         [12] 2913 	jr	Z,00124$
                           2914 ;src/man/game.c:124: Beep();
   0E4F CDr00r00      [17] 2915 	call	_Beep
                           2916 ;src/man/game.c:125: player->lives-=1;
   0E52 2ArE7r71      [16] 2917 	ld	hl, (_player)
   0E55 01 14 00      [10] 2918 	ld	bc, #0x0014
   0E58 09            [11] 2919 	add	hl, bc
   0E59 7E            [ 7] 2920 	ld	a, (hl)
   0E5A 3D            [ 4] 2921 	dec	a
   0E5B 77            [ 7] 2922 	ld	(hl), a
                           2923 ;src/man/game.c:126: pintar_HUD();
   0E5C CDr21r15      [17] 2924 	call	_pintar_HUD
   0E5F                    2925 00124$:
                           2926 ;src/man/game.c:118: for (char i=0;i<sys_entity_get_num_enemies();++i){
   0E5F DD 34 FF      [23] 2927 	inc	-1 (ix)
   0E62 18 B5         [12] 2928 	jr	00123$
   0E64                    2929 00103$:
                           2930 ;src/man/game.c:130: for (char i=0;i<sys_entity_get_num_objects();++i){
   0E64 AF            [ 4] 2931 	xor	a, a
   0E65 DD 77 FF      [19] 2932 	ld	-1 (ix), a
   0E68                    2933 00126$:
   0E68 CDrB4r01      [17] 2934 	call	_sys_entity_get_num_objects
   0E6B DD 7E FF      [19] 2935 	ld	a, -1 (ix)
   0E6E 95            [ 4] 2936 	sub	a, l
   0E6F 30 57         [12] 2937 	jr	NC,00106$
                           2938 ;src/man/game.c:131: TEntity *object=&array_objects[i];
   0E71 DD 4E FF      [19] 2939 	ld	c, -1 (ix)
   0E74 06 00         [ 7] 2940 	ld	b, #0x00
   0E76 69            [ 4] 2941 	ld	l, c
   0E77 60            [ 4] 2942 	ld	h, b
   0E78 29            [11] 2943 	add	hl, hl
   0E79 29            [11] 2944 	add	hl, hl
   0E7A 09            [11] 2945 	add	hl, bc
   0E7B 29            [11] 2946 	add	hl, hl
   0E7C 09            [11] 2947 	add	hl, bc
   0E7D 29            [11] 2948 	add	hl, hl
   0E7E 09            [11] 2949 	add	hl, bc
   0E7F EB            [ 4] 2950 	ex	de, hl
   0E80 2ArF9r71      [16] 2951 	ld	hl, (_array_objects)
   0E83 19            [11] 2952 	add	hl, de
                           2953 ;src/man/game.c:132: sys_render_update(object);
   0E84 E5            [11] 2954 	push	hl
   0E85 E5            [11] 2955 	push	hl
   0E86 CDr81r08      [17] 2956 	call	_sys_render_update
   0E89 F1            [10] 2957 	pop	af
   0E8A 2ArE7r71      [16] 2958 	ld	hl, (_player)
   0E8D E5            [11] 2959 	push	hl
   0E8E CDr3Er04      [17] 2960 	call	_sys_collider_entity1_collider_entity
   0E91 F1            [10] 2961 	pop	af
   0E92 F1            [10] 2962 	pop	af
   0E93 7D            [ 4] 2963 	ld	a, l
   0E94 B7            [ 4] 2964 	or	a, a
   0E95 28 2C         [12] 2965 	jr	Z,00127$
                           2966 ;src/man/game.c:125: player->lives-=1;
   0E97 2ArE7r71      [16] 2967 	ld	hl, (_player)
                           2968 ;src/man/game.c:136: player->points+=10;
   0E9A 01 12 00      [10] 2969 	ld	bc, #0x0012
   0E9D 09            [11] 2970 	add	hl, bc
   0E9E 7E            [ 7] 2971 	ld	a, (hl)
   0E9F 23            [ 6] 2972 	inc	hl
   0EA0 4E            [ 7] 2973 	ld	c, (hl)
   0EA1 2B            [ 6] 2974 	dec	hl
   0EA2 C6 0A         [ 7] 2975 	add	a, #0x0a
   0EA4 5F            [ 4] 2976 	ld	e, a
   0EA5 79            [ 4] 2977 	ld	a, c
   0EA6 CE 00         [ 7] 2978 	adc	a, #0x00
   0EA8 73            [ 7] 2979 	ld	(hl), e
   0EA9 23            [ 6] 2980 	inc	hl
   0EAA 77            [ 7] 2981 	ld	(hl), a
                           2982 ;src/man/game.c:137: world_money-=1;
   0EAB 3ArECr71      [13] 2983 	ld	a,(#_world_money + 0)
   0EAE 21rECr71      [10] 2984 	ld	hl, #_world_money
   0EB1 C6 FF         [ 7] 2985 	add	a, #0xff
   0EB3 77            [ 7] 2986 	ld	(hl), a
                           2987 ;src/man/game.c:138: pintar_HUD();
   0EB4 CDr21r15      [17] 2988 	call	_pintar_HUD
                           2989 ;src/man/game.c:139: Beep();
   0EB7 CDr00r00      [17] 2990 	call	_Beep
                           2991 ;src/man/game.c:140: sys_entity_erase_object(i);
   0EBA DD 7E FF      [19] 2992 	ld	a, -1 (ix)
   0EBD F5            [11] 2993 	push	af
   0EBE 33            [ 6] 2994 	inc	sp
   0EBF CDr3Er01      [17] 2995 	call	_sys_entity_erase_object
   0EC2 33            [ 6] 2996 	inc	sp
   0EC3                    2997 00127$:
                           2998 ;src/man/game.c:130: for (char i=0;i<sys_entity_get_num_objects();++i){
   0EC3 DD 34 FF      [23] 2999 	inc	-1 (ix)
   0EC6 18 A0         [12] 3000 	jr	00126$
   0EC8                    3001 00106$:
                           3002 ;src/man/game.c:149: if (world_money==0){
   0EC8 3ArECr71      [13] 3003 	ld	a,(#_world_money + 0)
   0ECB B7            [ 4] 3004 	or	a, a
   0ECC C2r4Cr0F      [10] 3005 	jp	NZ, 00118$
                           3006 ;src/man/game.c:150: if (time % 3==0)HMMM(8*8,256,30*8,24*8,16,16);
   0ECF 21 03 00      [10] 3007 	ld	hl, #0x0003
   0ED2 E5            [11] 3008 	push	hl
   0ED3 2ArEDr71      [16] 3009 	ld	hl, (_time)
   0ED6 E5            [11] 3010 	push	hl
   0ED7 CDr00r00      [17] 3011 	call	__moduint
   0EDA F1            [10] 3012 	pop	af
   0EDB F1            [10] 3013 	pop	af
   0EDC 7C            [ 4] 3014 	ld	a, h
   0EDD B5            [ 4] 3015 	or	a, l
   0EDE 20 1F         [12] 3016 	jr	NZ,00110$
   0EE0 21 10 00      [10] 3017 	ld	hl, #0x0010
   0EE3 E5            [11] 3018 	push	hl
   0EE4 2E 10         [ 7] 3019 	ld	l, #0x10
   0EE6 E5            [11] 3020 	push	hl
   0EE7 2E C0         [ 7] 3021 	ld	l, #0xc0
   0EE9 E5            [11] 3022 	push	hl
   0EEA 2E F0         [ 7] 3023 	ld	l, #0xf0
   0EEC E5            [11] 3024 	push	hl
   0EED 21 00 01      [10] 3025 	ld	hl, #0x0100
   0EF0 E5            [11] 3026 	push	hl
   0EF1 21 40 00      [10] 3027 	ld	hl, #0x0040
   0EF4 E5            [11] 3028 	push	hl
   0EF5 CDr00r00      [17] 3029 	call	_HMMM
   0EF8 21 0C 00      [10] 3030 	ld	hl, #12
   0EFB 39            [11] 3031 	add	hl, sp
   0EFC F9            [ 6] 3032 	ld	sp, hl
   0EFD 18 23         [12] 3033 	jr	00111$
   0EFF                    3034 00110$:
                           3035 ;src/man/game.c:151: else if (enabled_world_change==0)HMMM(8*8,256+100,30*8,24*8,16,16);
   0EFF 3ArEBr71      [13] 3036 	ld	a,(#_enabled_world_change + 0)
   0F02 B7            [ 4] 3037 	or	a, a
   0F03 20 1D         [12] 3038 	jr	NZ,00111$
   0F05 21 10 00      [10] 3039 	ld	hl, #0x0010
   0F08 E5            [11] 3040 	push	hl
   0F09 2E 10         [ 7] 3041 	ld	l, #0x10
   0F0B E5            [11] 3042 	push	hl
   0F0C 2E C0         [ 7] 3043 	ld	l, #0xc0
   0F0E E5            [11] 3044 	push	hl
   0F0F 2E F0         [ 7] 3045 	ld	l, #0xf0
   0F11 E5            [11] 3046 	push	hl
   0F12 21 64 01      [10] 3047 	ld	hl, #0x0164
   0F15 E5            [11] 3048 	push	hl
   0F16 21 40 00      [10] 3049 	ld	hl, #0x0040
   0F19 E5            [11] 3050 	push	hl
   0F1A CDr00r00      [17] 3051 	call	_HMMM
   0F1D 21 0C 00      [10] 3052 	ld	hl, #12
   0F20 39            [11] 3053 	add	hl, sp
   0F21 F9            [ 6] 3054 	ld	sp, hl
   0F22                    3055 00111$:
                           3056 ;src/man/game.c:152: if (sys_collider_get_tile_array(player)==tile_phone1 || sys_collider_get_tile_array(player)==tile_phone2){
   0F22 2ArE7r71      [16] 3057 	ld	hl, (_player)
   0F25 E5            [11] 3058 	push	hl
   0F26 CDr89r03      [17] 3059 	call	_sys_collider_get_tile_array
   0F29 F1            [10] 3060 	pop	af
   0F2A 7D            [ 4] 3061 	ld	a, l
   0F2B D6 28         [ 7] 3062 	sub	a, #0x28
   0F2D B4            [ 4] 3063 	or	a, h
   0F2E 28 0E         [12] 3064 	jr	Z,00112$
   0F30 2ArE7r71      [16] 3065 	ld	hl, (_player)
   0F33 E5            [11] 3066 	push	hl
   0F34 CDr89r03      [17] 3067 	call	_sys_collider_get_tile_array
   0F37 F1            [10] 3068 	pop	af
   0F38 7D            [ 4] 3069 	ld	a, l
   0F39 D6 24         [ 7] 3070 	sub	a, #0x24
   0F3B B4            [ 4] 3071 	or	a, h
   0F3C 20 05         [12] 3072 	jr	NZ,00113$
   0F3E                    3073 00112$:
                           3074 ;src/man/game.c:153: enabled_world_change=1;
   0F3E 21rEBr71      [10] 3075 	ld	hl,#_enabled_world_change + 0
   0F41 36 01         [10] 3076 	ld	(hl), #0x01
   0F43                    3077 00113$:
                           3078 ;src/man/game.c:155: if (enabled_world_change==1)man_game_check_change_world();
   0F43 3ArEBr71      [13] 3079 	ld	a,(#_enabled_world_change + 0)
   0F46 3D            [ 4] 3080 	dec	a
   0F47 20 03         [12] 3081 	jr	NZ,00118$
   0F49 CDr83r11      [17] 3082 	call	_man_game_check_change_world
   0F4C                    3083 00118$:
                           3084 ;src/man/game.c:159: time=RealTimer();
   0F4C CDr00r00      [17] 3085 	call	_RealTimer
   0F4F 22rEDr71      [16] 3086 	ld	(_time), hl
                           3087 ;src/man/game.c:160: PutText(200,192,Itoa(time/60,"      ",10),0);
   0F52 21 3C 00      [10] 3088 	ld	hl, #0x003c
   0F55 E5            [11] 3089 	push	hl
   0F56 2ArEDr71      [16] 3090 	ld	hl, (_time)
   0F59 E5            [11] 3091 	push	hl
   0F5A CDr00r00      [17] 3092 	call	__divuint
   0F5D F1            [10] 3093 	pop	af
   0F5E F1            [10] 3094 	pop	af
   0F5F 01 0A 00      [10] 3095 	ld	bc, #0x000a
   0F62 C5            [11] 3096 	push	bc
   0F63 01r8Ar0F      [10] 3097 	ld	bc, #___str_7
   0F66 C5            [11] 3098 	push	bc
   0F67 E5            [11] 3099 	push	hl
   0F68 CDr00r00      [17] 3100 	call	_Itoa
   0F6B F1            [10] 3101 	pop	af
   0F6C F1            [10] 3102 	pop	af
   0F6D F1            [10] 3103 	pop	af
   0F6E AF            [ 4] 3104 	xor	a, a
   0F6F F5            [11] 3105 	push	af
   0F70 33            [ 6] 3106 	inc	sp
   0F71 E5            [11] 3107 	push	hl
   0F72 21 C0 00      [10] 3108 	ld	hl, #0x00c0
   0F75 E5            [11] 3109 	push	hl
   0F76 2E C8         [ 7] 3110 	ld	l, #0xc8
   0F78 E5            [11] 3111 	push	hl
   0F79 CDr00r00      [17] 3112 	call	_PutText
   0F7C F1            [10] 3113 	pop	af
   0F7D F1            [10] 3114 	pop	af
   0F7E F1            [10] 3115 	pop	af
   0F7F 33            [ 6] 3116 	inc	sp
                           3117 ;src/man/game.c:165: wait();
   0F80 CDr43r14      [17] 3118 	call	_wait
                           3119 ;src/man/game.c:166: }while(1);
   0F83 C3r02r0E      [10] 3120 	jp	00119$
                           3121 ;src/man/game.c:167: }
   0F86 33            [ 6] 3122 	inc	sp
   0F87 DD E1         [14] 3123 	pop	ix
   0F89 C9            [10] 3124 	ret
   0F8A                    3125 ___str_7:
   0F8A 20 20 20 20 20 20  3126 	.ascii "      "
   0F90 00                 3127 	.db 0x00
                           3128 ;src/man/game.c:169: void man_game_update(){
                           3129 ;	---------------------------------
                           3130 ; Function man_game_update
                           3131 ; ---------------------------------
   0F91                    3132 _man_game_update::
   0F91 CDr00r00      [17] 3133 	call	___sdcc_enter_ix
   0F94 F5            [11] 3134 	push	af
   0F95 F5            [11] 3135 	push	af
   0F96 F5            [11] 3136 	push	af
                           3137 ;src/man/game.c:170: if (world_change==1){
   0F97 3ArEAr71      [13] 3138 	ld	a,(#_world_change + 0)
   0F9A 3D            [ 4] 3139 	dec	a
   0F9B C2r68r11      [10] 3140 	jp	NZ,00119$
                           3141 ;src/man/game.c:171: Cls();
   0F9E CDr00r00      [17] 3142 	call	_Cls
                           3143 ;src/man/game.c:172: sys_entity_erase_all_objects();
   0FA1 CDr8Fr01      [17] 3144 	call	_sys_entity_erase_all_objects
                           3145 ;src/man/game.c:173: sys_entity_erase_all_enemies();
   0FA4 CDr29r01      [17] 3146 	call	_sys_entity_erase_all_enemies
                           3147 ;src/man/game.c:175: if (actual_world==0){
   0FA7 3ArE9r71      [13] 3148 	ld	a,(#_actual_world + 0)
   0FAA B7            [ 4] 3149 	or	a, a
   0FAB 20 25         [12] 3150 	jr	NZ,00107$
                           3151 ;src/man/game.c:177: load_file_into_buffer_with_structure("world0.bin");
   0FAD 21r6Dr11      [10] 3152 	ld	hl, #___str_8
   0FB0 E5            [11] 3153 	push	hl
   0FB1 CDrD9r01      [17] 3154 	call	_load_file_into_buffer_with_structure
   0FB4 F1            [10] 3155 	pop	af
                           3156 ;src/man/game.c:179: world_money=6;
   0FB5 21rECr71      [10] 3157 	ld	hl,#_world_money + 0
   0FB8 36 06         [10] 3158 	ld	(hl), #0x06
                           3159 ;src/man/game.c:182: player->x=1*8;
   0FBA 2ArE7r71      [16] 3160 	ld	hl, (_player)
   0FBD 23            [ 6] 3161 	inc	hl
   0FBE 23            [ 6] 3162 	inc	hl
   0FBF 36 08         [10] 3163 	ld	(hl), #0x08
   0FC1 23            [ 6] 3164 	inc	hl
   0FC2 36 00         [10] 3165 	ld	(hl), #0x00
                           3166 ;src/man/game.c:183: player->y=19*8;
   0FC4 2ArE7r71      [16] 3167 	ld	hl, (_player)
   0FC7 01 04 00      [10] 3168 	ld	bc, #0x0004
   0FCA 09            [11] 3169 	add	hl, bc
   0FCB 36 98         [10] 3170 	ld	(hl), #0x98
   0FCD 23            [ 6] 3171 	inc	hl
   0FCE 36 00         [10] 3172 	ld	(hl), #0x00
   0FD0 18 4D         [12] 3173 	jr	00126$
   0FD2                    3174 00107$:
                           3175 ;src/man/game.c:185: }else if (actual_world==1){
   0FD2 3ArE9r71      [13] 3176 	ld	a,(#_actual_world + 0)
   0FD5 3D            [ 4] 3177 	dec	a
   0FD6 20 25         [12] 3178 	jr	NZ,00104$
                           3179 ;src/man/game.c:186: load_file_into_buffer_with_structure("world1.bin");
   0FD8 21r78r11      [10] 3180 	ld	hl, #___str_9
   0FDB E5            [11] 3181 	push	hl
   0FDC CDrD9r01      [17] 3182 	call	_load_file_into_buffer_with_structure
   0FDF F1            [10] 3183 	pop	af
                           3184 ;src/man/game.c:187: player->x=14*8;
   0FE0 2ArE7r71      [16] 3185 	ld	hl, (_player)
   0FE3 23            [ 6] 3186 	inc	hl
   0FE4 23            [ 6] 3187 	inc	hl
   0FE5 36 70         [10] 3188 	ld	(hl), #0x70
   0FE7 23            [ 6] 3189 	inc	hl
   0FE8 36 00         [10] 3190 	ld	(hl), #0x00
                           3191 ;src/man/game.c:188: player->y=20*8;
   0FEA 2ArE7r71      [16] 3192 	ld	hl, (_player)
   0FED 01 04 00      [10] 3193 	ld	bc, #0x0004
   0FF0 09            [11] 3194 	add	hl, bc
   0FF1 36 A0         [10] 3195 	ld	(hl), #0xa0
   0FF3 23            [ 6] 3196 	inc	hl
   0FF4 36 00         [10] 3197 	ld	(hl), #0x00
                           3198 ;src/man/game.c:189: world_money=6;
   0FF6 21rECr71      [10] 3199 	ld	hl,#_world_money + 0
   0FF9 36 06         [10] 3200 	ld	(hl), #0x06
   0FFB 18 22         [12] 3201 	jr	00126$
   0FFD                    3202 00104$:
                           3203 ;src/man/game.c:190: }else if (actual_world==2){
   0FFD 3ArE9r71      [13] 3204 	ld	a,(#_actual_world + 0)
   1000 D6 02         [ 7] 3205 	sub	a, #0x02
   1002 20 1B         [12] 3206 	jr	NZ,00126$
                           3207 ;src/man/game.c:191: player->x=14*8;
   1004 2ArE7r71      [16] 3208 	ld	hl, (_player)
   1007 23            [ 6] 3209 	inc	hl
   1008 23            [ 6] 3210 	inc	hl
   1009 36 70         [10] 3211 	ld	(hl), #0x70
   100B 23            [ 6] 3212 	inc	hl
   100C 36 00         [10] 3213 	ld	(hl), #0x00
                           3214 ;src/man/game.c:192: player->y=20*8;
   100E 2ArE7r71      [16] 3215 	ld	hl, (_player)
   1011 01 04 00      [10] 3216 	ld	bc, #0x0004
   1014 09            [11] 3217 	add	hl, bc
   1015 36 A0         [10] 3218 	ld	(hl), #0xa0
   1017 23            [ 6] 3219 	inc	hl
   1018 36 00         [10] 3220 	ld	(hl), #0x00
                           3221 ;src/man/game.c:193: world_money=20;
   101A 21rECr71      [10] 3222 	ld	hl,#_world_money + 0
   101D 36 14         [10] 3223 	ld	(hl), #0x14
                           3224 ;src/man/game.c:200: for (int i=0;i<MAX_enemies;i++){ 
   101F                    3225 00126$:
   101F 01 00 00      [10] 3226 	ld	bc, #0x0000
   1022                    3227 00114$:
   1022 79            [ 4] 3228 	ld	a, c
   1023 D6 0A         [ 7] 3229 	sub	a, #0x0a
   1025 78            [ 4] 3230 	ld	a, b
   1026 17            [ 4] 3231 	rla
   1027 3F            [ 4] 3232 	ccf
   1028 1F            [ 4] 3233 	rra
   1029 DE 80         [ 7] 3234 	sbc	a, #0x80
   102B D2rB7r10      [10] 3235 	jp	NC, 00109$
                           3236 ;src/man/game.c:201: TCoordinate_enemy* coordinate_enemy=&world_enemies[actual_world][i];
   102E ED 5BrE9r71   [20] 3237 	ld	de, (_actual_world)
   1032 16 00         [ 7] 3238 	ld	d, #0x00
   1034 6B            [ 4] 3239 	ld	l, e
   1035 62            [ 4] 3240 	ld	h, d
   1036 29            [11] 3241 	add	hl, hl
   1037 19            [11] 3242 	add	hl, de
   1038 29            [11] 3243 	add	hl, hl
   1039 29            [11] 3244 	add	hl, hl
   103A 29            [11] 3245 	add	hl, hl
   103B 19            [11] 3246 	add	hl, de
   103C 29            [11] 3247 	add	hl, hl
   103D EB            [ 4] 3248 	ex	de, hl
   103E 21r90r02      [10] 3249 	ld	hl, #_world_enemies
   1041 19            [11] 3250 	add	hl, de
   1042 EB            [ 4] 3251 	ex	de, hl
   1043 69            [ 4] 3252 	ld	l, c
   1044 60            [ 4] 3253 	ld	h, b
   1045 29            [11] 3254 	add	hl, hl
   1046 29            [11] 3255 	add	hl, hl
   1047 09            [11] 3256 	add	hl, bc
   1048 19            [11] 3257 	add	hl, de
   1049 33            [ 6] 3258 	inc	sp
   104A 33            [ 6] 3259 	inc	sp
   104B E5            [11] 3260 	push	hl
                           3261 ;src/man/game.c:202: TEntity *enemy=sys_entity_create_enemy1();
   104C C5            [11] 3262 	push	bc
   104D CDr88r00      [17] 3263 	call	_sys_entity_create_enemy1
   1050 C1            [10] 3264 	pop	bc
   1051 EB            [ 4] 3265 	ex	de,hl
                           3266 ;src/man/game.c:203: enemy->x=coordinate_enemy->x;
   1052 21 02 00      [10] 3267 	ld	hl, #0x0002
   1055 19            [11] 3268 	add	hl, de
   1056 DD 75 FC      [19] 3269 	ld	-4 (ix), l
   1059 DD 74 FD      [19] 3270 	ld	-3 (ix), h
   105C E1            [10] 3271 	pop	hl
   105D E5            [11] 3272 	push	hl
   105E 7E            [ 7] 3273 	ld	a, (hl)
   105F DD 77 FE      [19] 3274 	ld	-2 (ix), a
   1062 23            [ 6] 3275 	inc	hl
   1063 7E            [ 7] 3276 	ld	a, (hl)
   1064 DD 77 FF      [19] 3277 	ld	-1 (ix), a
   1067 DD 6E FC      [19] 3278 	ld	l, -4 (ix)
   106A DD 66 FD      [19] 3279 	ld	h, -3 (ix)
   106D DD 7E FE      [19] 3280 	ld	a, -2 (ix)
   1070 77            [ 7] 3281 	ld	(hl), a
   1071 23            [ 6] 3282 	inc	hl
   1072 DD 7E FF      [19] 3283 	ld	a, -1 (ix)
   1075 77            [ 7] 3284 	ld	(hl), a
                           3285 ;src/man/game.c:204: enemy->y=coordinate_enemy->y;
   1076 21 04 00      [10] 3286 	ld	hl, #0x0004
   1079 19            [11] 3287 	add	hl, de
   107A DD 75 FC      [19] 3288 	ld	-4 (ix), l
   107D DD 74 FD      [19] 3289 	ld	-3 (ix), h
   1080 E1            [10] 3290 	pop	hl
   1081 E5            [11] 3291 	push	hl
   1082 23            [ 6] 3292 	inc	hl
   1083 23            [ 6] 3293 	inc	hl
   1084 7E            [ 7] 3294 	ld	a, (hl)
   1085 DD 77 FE      [19] 3295 	ld	-2 (ix), a
   1088 23            [ 6] 3296 	inc	hl
   1089 7E            [ 7] 3297 	ld	a, (hl)
   108A DD 77 FF      [19] 3298 	ld	-1 (ix), a
   108D DD 6E FC      [19] 3299 	ld	l, -4 (ix)
   1090 DD 66 FD      [19] 3300 	ld	h, -3 (ix)
   1093 DD 7E FE      [19] 3301 	ld	a, -2 (ix)
   1096 77            [ 7] 3302 	ld	(hl), a
   1097 23            [ 6] 3303 	inc	hl
   1098 DD 7E FF      [19] 3304 	ld	a, -1 (ix)
   109B 77            [ 7] 3305 	ld	(hl), a
                           3306 ;src/man/game.c:205: enemy->type=coordinate_enemy->type;
   109C E1            [10] 3307 	pop	hl
   109D E5            [11] 3308 	push	hl
   109E 23            [ 6] 3309 	inc	hl
   109F 23            [ 6] 3310 	inc	hl
   10A0 23            [ 6] 3311 	inc	hl
   10A1 23            [ 6] 3312 	inc	hl
   10A2 7E            [ 7] 3313 	ld	a, (hl)
   10A3 12            [ 7] 3314 	ld	(de), a
                           3315 ;src/man/game.c:207: enemy->plane=enemy1_plane+sys_entity_get_num_enemies();
   10A4 21 11 00      [10] 3316 	ld	hl, #0x0011
   10A7 19            [11] 3317 	add	hl, de
   10A8 E5            [11] 3318 	push	hl
   10A9 C5            [11] 3319 	push	bc
   10AA CDrACr01      [17] 3320 	call	_sys_entity_get_num_enemies
   10AD 7D            [ 4] 3321 	ld	a, l
   10AE C1            [10] 3322 	pop	bc
   10AF E1            [10] 3323 	pop	hl
   10B0 C6 05         [ 7] 3324 	add	a, #0x05
   10B2 77            [ 7] 3325 	ld	(hl), a
                           3326 ;src/man/game.c:200: for (int i=0;i<MAX_enemies;i++){ 
   10B3 03            [ 6] 3327 	inc	bc
   10B4 C3r22r10      [10] 3328 	jp	00114$
   10B7                    3329 00109$:
                           3330 ;src/man/game.c:210: for (int i=0; i<MAX_objects;i++){
   10B7 AF            [ 4] 3331 	xor	a, a
   10B8 DD 77 FE      [19] 3332 	ld	-2 (ix), a
   10BB DD 77 FF      [19] 3333 	ld	-1 (ix), a
   10BE                    3334 00117$:
   10BE DD 7E FE      [19] 3335 	ld	a, -2 (ix)
   10C1 D6 0A         [ 7] 3336 	sub	a, #0x0a
   10C3 DD 7E FF      [19] 3337 	ld	a, -1 (ix)
   10C6 17            [ 4] 3338 	rla
   10C7 3F            [ 4] 3339 	ccf
   10C8 1F            [ 4] 3340 	rra
   10C9 DE 80         [ 7] 3341 	sbc	a, #0x80
   10CB 30 7C         [12] 3342 	jr	NC,00110$
                           3343 ;src/man/game.c:211: TCoordinate_object* coordinate_object=&world_objects[actual_world][i];
   10CD ED 4BrE9r71   [20] 3344 	ld	bc, (_actual_world)
   10D1 06 00         [ 7] 3345 	ld	b, #0x00
   10D3 69            [ 4] 3346 	ld	l, c
   10D4 60            [ 4] 3347 	ld	h, b
   10D5 29            [11] 3348 	add	hl, hl
   10D6 09            [11] 3349 	add	hl, bc
   10D7 29            [11] 3350 	add	hl, hl
   10D8 29            [11] 3351 	add	hl, hl
   10D9 29            [11] 3352 	add	hl, hl
   10DA 09            [11] 3353 	add	hl, bc
   10DB 29            [11] 3354 	add	hl, hl
   10DC EB            [ 4] 3355 	ex	de, hl
   10DD 21rF4r02      [10] 3356 	ld	hl, #_world_objects
   10E0 19            [11] 3357 	add	hl, de
   10E1 EB            [ 4] 3358 	ex	de, hl
   10E2 DD 4E FE      [19] 3359 	ld	c, -2 (ix)
   10E5 DD 46 FF      [19] 3360 	ld	b, -1 (ix)
   10E8 69            [ 4] 3361 	ld	l, c
   10E9 60            [ 4] 3362 	ld	h, b
   10EA 29            [11] 3363 	add	hl, hl
   10EB 29            [11] 3364 	add	hl, hl
   10EC 09            [11] 3365 	add	hl, bc
   10ED 19            [11] 3366 	add	hl, de
   10EE 33            [ 6] 3367 	inc	sp
   10EF 33            [ 6] 3368 	inc	sp
   10F0 E5            [11] 3369 	push	hl
                           3370 ;src/man/game.c:212: TEntity *object=sys_entity_create_object();
   10F1 CDrB0r00      [17] 3371 	call	_sys_entity_create_object
   10F4 4D            [ 4] 3372 	ld	c, l
   10F5 44            [ 4] 3373 	ld	b, h
                           3374 ;src/man/game.c:213: object->y=coordinate_object->y;
   10F6 21 04 00      [10] 3375 	ld	hl, #0x0004
   10F9 09            [11] 3376 	add	hl, bc
   10FA DD 75 FC      [19] 3377 	ld	-4 (ix), l
   10FD DD 74 FD      [19] 3378 	ld	-3 (ix), h
   1100 E1            [10] 3379 	pop	hl
   1101 E5            [11] 3380 	push	hl
   1102 23            [ 6] 3381 	inc	hl
   1103 23            [ 6] 3382 	inc	hl
   1104 5E            [ 7] 3383 	ld	e, (hl)
   1105 23            [ 6] 3384 	inc	hl
   1106 56            [ 7] 3385 	ld	d, (hl)
   1107 DD 6E FC      [19] 3386 	ld	l, -4 (ix)
   110A DD 66 FD      [19] 3387 	ld	h, -3 (ix)
   110D 73            [ 7] 3388 	ld	(hl), e
   110E 23            [ 6] 3389 	inc	hl
   110F 72            [ 7] 3390 	ld	(hl), d
                           3391 ;src/man/game.c:214: object->x=coordinate_object->x;
   1110 21 02 00      [10] 3392 	ld	hl, #0x0002
   1113 09            [11] 3393 	add	hl, bc
   1114 DD 75 FC      [19] 3394 	ld	-4 (ix), l
   1117 DD 74 FD      [19] 3395 	ld	-3 (ix), h
   111A E1            [10] 3396 	pop	hl
   111B E5            [11] 3397 	push	hl
   111C 5E            [ 7] 3398 	ld	e, (hl)
   111D 23            [ 6] 3399 	inc	hl
   111E 56            [ 7] 3400 	ld	d, (hl)
   111F DD 6E FC      [19] 3401 	ld	l, -4 (ix)
   1122 DD 66 FD      [19] 3402 	ld	h, -3 (ix)
   1125 73            [ 7] 3403 	ld	(hl), e
   1126 23            [ 6] 3404 	inc	hl
   1127 72            [ 7] 3405 	ld	(hl), d
                           3406 ;src/man/game.c:215: object->type=coordinate_object->type;
   1128 E1            [10] 3407 	pop	hl
   1129 E5            [11] 3408 	push	hl
   112A 11 04 00      [10] 3409 	ld	de, #0x0004
   112D 19            [11] 3410 	add	hl, de
   112E 7E            [ 7] 3411 	ld	a, (hl)
   112F 02            [ 7] 3412 	ld	(bc), a
                           3413 ;src/man/game.c:216: object->plane=object_money+sys_entity_get_num_objects();
   1130 21 11 00      [10] 3414 	ld	hl, #0x0011
   1133 09            [11] 3415 	add	hl, bc
   1134 E5            [11] 3416 	push	hl
   1135 CDrB4r01      [17] 3417 	call	_sys_entity_get_num_objects
   1138 7D            [ 4] 3418 	ld	a, l
   1139 E1            [10] 3419 	pop	hl
   113A C6 0F         [ 7] 3420 	add	a, #0x0f
   113C 77            [ 7] 3421 	ld	(hl), a
                           3422 ;src/man/game.c:210: for (int i=0; i<MAX_objects;i++){
   113D DD 34 FE      [23] 3423 	inc	-2 (ix)
   1140 C2rBEr10      [10] 3424 	jp	NZ,00117$
   1143 DD 34 FF      [23] 3425 	inc	-1 (ix)
   1146 C3rBEr10      [10] 3426 	jp	00117$
   1149                    3427 00110$:
                           3428 ;src/man/game.c:221: man_game_pintarMapa();
   1149 CDrAEr11      [17] 3429 	call	_man_game_pintarMapa
                           3430 ;src/man/game.c:222: array_enemies=sys_entity_get_array_structs_enemies();
   114C CDrA4r01      [17] 3431 	call	_sys_entity_get_array_structs_enemies
   114F 22rF7r71      [16] 3432 	ld	(_array_enemies), hl
                           3433 ;src/man/game.c:223: array_objects=sys_entity_get_array_structs_objects();
   1152 CDrA8r01      [17] 3434 	call	_sys_entity_get_array_structs_objects
   1155 22rF9r71      [16] 3435 	ld	(_array_objects), hl
                           3436 ;src/man/game.c:224: pintar_HUD();
   1158 CDr21r15      [17] 3437 	call	_pintar_HUD
                           3438 ;src/man/game.c:225: SpriteOn();
   115B CDr00r00      [17] 3439 	call	_SpriteOn
                           3440 ;src/man/game.c:226: world_change=0;
   115E 21rEAr71      [10] 3441 	ld	hl,#_world_change + 0
   1161 36 00         [10] 3442 	ld	(hl), #0x00
                           3443 ;src/man/game.c:228: enabled_world_change=0;
   1163 21rEBr71      [10] 3444 	ld	hl,#_enabled_world_change + 0
   1166 36 00         [10] 3445 	ld	(hl), #0x00
   1168                    3446 00119$:
                           3447 ;src/man/game.c:233: }
   1168 DD F9         [10] 3448 	ld	sp, ix
   116A DD E1         [14] 3449 	pop	ix
   116C C9            [10] 3450 	ret
   116D                    3451 ___str_8:
   116D 77 6F 72 6C 64 30  3452 	.ascii "world0.bin"
        2E 62 69 6E
   1177 00                 3453 	.db 0x00
   1178                    3454 ___str_9:
   1178 77 6F 72 6C 64 31  3455 	.ascii "world1.bin"
        2E 62 69 6E
   1182 00                 3456 	.db 0x00
                           3457 ;src/man/game.c:234: void man_game_check_change_world(){
                           3458 ;	---------------------------------
                           3459 ; Function man_game_check_change_world
                           3460 ; ---------------------------------
   1183                    3461 _man_game_check_change_world::
                           3462 ;src/man/game.c:235: if (sys_collider_get_tile_array(player)==tile_end_level1 || sys_collider_get_tile_array(player)==tile_end_level2 ){
   1183 2ArE7r71      [16] 3463 	ld	hl, (_player)
   1186 E5            [11] 3464 	push	hl
   1187 CDr89r03      [17] 3465 	call	_sys_collider_get_tile_array
   118A F1            [10] 3466 	pop	af
   118B 7D            [ 4] 3467 	ld	a, l
   118C D6 E8         [ 7] 3468 	sub	a, #0xe8
   118E B4            [ 4] 3469 	or	a, h
   118F 28 0D         [12] 3470 	jr	Z,00101$
   1191 2ArE7r71      [16] 3471 	ld	hl, (_player)
   1194 E5            [11] 3472 	push	hl
   1195 CDr89r03      [17] 3473 	call	_sys_collider_get_tile_array
   1198 F1            [10] 3474 	pop	af
   1199 7D            [ 4] 3475 	ld	a, l
   119A D6 E9         [ 7] 3476 	sub	a, #0xe9
   119C B4            [ 4] 3477 	or	a, h
   119D C0            [11] 3478 	ret	NZ
   119E                    3479 00101$:
                           3480 ;src/man/game.c:236: world_change=1;
   119E FD 21rEAr71   [14] 3481 	ld	iy, #_world_change
   11A2 FD 36 00 01   [19] 3482 	ld	0 (iy), #0x01
                           3483 ;src/man/game.c:237: actual_world+=1;
   11A6 3ArE9r71      [13] 3484 	ld	a,(#_actual_world + 0)
   11A9 3C            [ 4] 3485 	inc	a
   11AA 32rE9r71      [13] 3486 	ld	(_actual_world+0), a
                           3487 ;src/man/game.c:239: }
   11AD C9            [10] 3488 	ret
                           3489 ;src/man/game.c:241: void man_game_pintarMapa(){
                           3490 ;	---------------------------------
                           3491 ; Function man_game_pintarMapa
                           3492 ; ---------------------------------
   11AE                    3493 _man_game_pintarMapa::
   11AE CDr00r00      [17] 3494 	call	___sdcc_enter_ix
   11B1 21 F7 FF      [10] 3495 	ld	hl, #-9
   11B4 39            [11] 3496 	add	hl, sp
   11B5 F9            [ 6] 3497 	ld	sp, hl
                           3498 ;src/man/game.c:246: for (char f=0; f<numeroFilas;f++){
   11B6 0E 00         [ 7] 3499 	ld	c, #0x00
   11B8                    3500 00107$:
   11B8 79            [ 4] 3501 	ld	a, c
   11B9 D6 17         [ 7] 3502 	sub	a, #0x17
   11BB D2rA4r12      [10] 3503 	jp	NC, 00109$
                           3504 ;src/man/game.c:247: for (char c=0; c<numeroColumnas;c++){
   11BE 06 00         [ 7] 3505 	ld	b, #0x00
   11C0 69            [ 4] 3506 	ld	l, c
   11C1 60            [ 4] 3507 	ld	h, b
   11C2 29            [11] 3508 	add	hl, hl
   11C3 29            [11] 3509 	add	hl, hl
   11C4 29            [11] 3510 	add	hl, hl
   11C5 29            [11] 3511 	add	hl, hl
   11C6 29            [11] 3512 	add	hl, hl
   11C7 E3            [19] 3513 	ex	(sp), hl
   11C8 AF            [ 4] 3514 	xor	a, a
   11C9 DD 77 FF      [19] 3515 	ld	-1 (ix), a
   11CC                    3516 00104$:
   11CC DD 7E FF      [19] 3517 	ld	a, -1 (ix)
   11CF D6 20         [ 7] 3518 	sub	a, #0x20
   11D1 D2rA0r12      [10] 3519 	jp	NC, 00108$
                           3520 ;src/man/game.c:249: columnaEnTileset=(((buffer[c+(f*numeroColumnas)]/32)+1)*32)-(buffer[c+(f*numeroColumnas)]);
   11D4 DD 5E FF      [19] 3521 	ld	e, -1 (ix)
   11D7 16 00         [ 7] 3522 	ld	d, #0x00
   11D9 E1            [10] 3523 	pop	hl
   11DA E5            [11] 3524 	push	hl
   11DB 19            [11] 3525 	add	hl, de
   11DC 3ErCE         [ 7] 3526 	ld	a, #<(_buffer)
   11DE 85            [ 4] 3527 	add	a, l
   11DF DD 77 F9      [19] 3528 	ld	-7 (ix), a
   11E2 3Es01         [ 7] 3529 	ld	a, #>(_buffer)
   11E4 8C            [ 4] 3530 	adc	a, h
   11E5 DD 77 FA      [19] 3531 	ld	-6 (ix), a
   11E8 DD 6E F9      [19] 3532 	ld	l, -7 (ix)
   11EB DD 66 FA      [19] 3533 	ld	h, -6 (ix)
   11EE 46            [ 7] 3534 	ld	b, (hl)
   11EF 68            [ 4] 3535 	ld	l, b
   11F0 26 00         [ 7] 3536 	ld	h, #0x00
   11F2 DD 75 FD      [19] 3537 	ld	-3 (ix), l
   11F5 DD 74 FE      [19] 3538 	ld	-2 (ix), h
   11F8 CB 7C         [ 8] 3539 	bit	7, h
   11FA 28 0C         [12] 3540 	jr	Z,00111$
   11FC 7D            [ 4] 3541 	ld	a, l
   11FD C6 1F         [ 7] 3542 	add	a, #0x1f
   11FF DD 77 FD      [19] 3543 	ld	-3 (ix), a
   1202 7C            [ 4] 3544 	ld	a, h
   1203 CE 00         [ 7] 3545 	adc	a, #0x00
   1205 DD 77 FE      [19] 3546 	ld	-2 (ix), a
   1208                    3547 00111$:
   1208 DD 6E FD      [19] 3548 	ld	l, -3 (ix)
   120B DD 66 FE      [19] 3549 	ld	h, -2 (ix)
   120E 3E 05         [ 7] 3550 	ld	a, #0x05
   1210                    3551 00145$:
   1210 CB 2C         [ 8] 3552 	sra	h
   1212 CB 1D         [ 8] 3553 	rr	l
   1214 3D            [ 4] 3554 	dec	a
   1215 20 F9         [12] 3555 	jr	NZ,00145$
   1217 7D            [ 4] 3556 	ld	a, l
   1218 3C            [ 4] 3557 	inc	a
   1219 0F            [ 4] 3558 	rrca
   121A 0F            [ 4] 3559 	rrca
   121B 0F            [ 4] 3560 	rrca
   121C E6 E0         [ 7] 3561 	and	a, #0xe0
   121E 90            [ 4] 3562 	sub	a, b
                           3563 ;src/man/game.c:250: resultado=(32-columnaEnTileset)*8;
   121F 47            [ 4] 3564 	ld	b, a
   1220 26 00         [ 7] 3565 	ld	h, #0x00
   1222 3E 20         [ 7] 3566 	ld	a, #0x20
   1224 90            [ 4] 3567 	sub	a, b
   1225 6F            [ 4] 3568 	ld	l, a
   1226 3E 00         [ 7] 3569 	ld	a, #0x00
   1228 9C            [ 4] 3570 	sbc	a, h
   1229 67            [ 4] 3571 	ld	h, a
   122A 29            [11] 3572 	add	hl, hl
   122B 29            [11] 3573 	add	hl, hl
   122C 29            [11] 3574 	add	hl, hl
   122D 22rFBr71      [16] 3575 	ld	(_resultado), hl
                           3576 ;src/man/game.c:251: HMMM(resultado,(buffer[c+(f*numeroColumnas)]/32)*8+256, c*8,f*8,8,8);
   1230 69            [ 4] 3577 	ld	l, c
   1231 26 00         [ 7] 3578 	ld	h, #0x00
   1233 29            [11] 3579 	add	hl, hl
   1234 29            [11] 3580 	add	hl, hl
   1235 29            [11] 3581 	add	hl, hl
   1236 DD 75 FB      [19] 3582 	ld	-5 (ix), l
   1239 DD 74 FC      [19] 3583 	ld	-4 (ix), h
   123C CB 23         [ 8] 3584 	sla	e
   123E CB 12         [ 8] 3585 	rl	d
   1240 CB 23         [ 8] 3586 	sla	e
   1242 CB 12         [ 8] 3587 	rl	d
   1244 CB 23         [ 8] 3588 	sla	e
   1246 CB 12         [ 8] 3589 	rl	d
   1248 DD 73 FD      [19] 3590 	ld	-3 (ix), e
   124B DD 72 FE      [19] 3591 	ld	-2 (ix), d
   124E DD 6E F9      [19] 3592 	ld	l, -7 (ix)
   1251 DD 66 FA      [19] 3593 	ld	h, -6 (ix)
   1254 46            [ 7] 3594 	ld	b, (hl)
   1255 2E 00         [ 7] 3595 	ld	l, #0x00
   1257 58            [ 4] 3596 	ld	e, b
   1258 55            [ 4] 3597 	ld	d, l
   1259 CB 7D         [ 8] 3598 	bit	7, l
   125B 28 08         [12] 3599 	jr	Z,00112$
   125D 78            [ 4] 3600 	ld	a, b
   125E C6 1F         [ 7] 3601 	add	a, #0x1f
   1260 5F            [ 4] 3602 	ld	e, a
   1261 7D            [ 4] 3603 	ld	a, l
   1262 CE 00         [ 7] 3604 	adc	a, #0x00
   1264 57            [ 4] 3605 	ld	d, a
   1265                    3606 00112$:
   1265 06 05         [ 7] 3607 	ld	b, #0x05
   1267                    3608 00148$:
   1267 CB 2A         [ 8] 3609 	sra	d
   1269 CB 1B         [ 8] 3610 	rr	e
   126B 10 FA         [13] 3611 	djnz	00148$
   126D EB            [ 4] 3612 	ex	de,hl
   126E 29            [11] 3613 	add	hl, hl
   126F 29            [11] 3614 	add	hl, hl
   1270 29            [11] 3615 	add	hl, hl
   1271 11 00 01      [10] 3616 	ld	de, #0x0100
   1274 19            [11] 3617 	add	hl, de
   1275 C5            [11] 3618 	push	bc
   1276 11 08 00      [10] 3619 	ld	de, #0x0008
   1279 D5            [11] 3620 	push	de
   127A 11 08 00      [10] 3621 	ld	de, #0x0008
   127D D5            [11] 3622 	push	de
   127E DD 5E FB      [19] 3623 	ld	e, -5 (ix)
   1281 DD 56 FC      [19] 3624 	ld	d, -4 (ix)
   1284 D5            [11] 3625 	push	de
   1285 DD 5E FD      [19] 3626 	ld	e, -3 (ix)
   1288 DD 56 FE      [19] 3627 	ld	d, -2 (ix)
   128B D5            [11] 3628 	push	de
   128C E5            [11] 3629 	push	hl
   128D 2ArFBr71      [16] 3630 	ld	hl, (_resultado)
   1290 E5            [11] 3631 	push	hl
   1291 CDr00r00      [17] 3632 	call	_HMMM
   1294 21 0C 00      [10] 3633 	ld	hl, #12
   1297 39            [11] 3634 	add	hl, sp
   1298 F9            [ 6] 3635 	ld	sp, hl
   1299 C1            [10] 3636 	pop	bc
                           3637 ;src/man/game.c:247: for (char c=0; c<numeroColumnas;c++){
   129A DD 34 FF      [23] 3638 	inc	-1 (ix)
   129D C3rCCr11      [10] 3639 	jp	00104$
   12A0                    3640 00108$:
                           3641 ;src/man/game.c:246: for (char f=0; f<numeroFilas;f++){
   12A0 0C            [ 4] 3642 	inc	c
   12A1 C3rB8r11      [10] 3643 	jp	00107$
   12A4                    3644 00109$:
                           3645 ;src/man/game.c:254: }
   12A4 DD F9         [10] 3646 	ld	sp, ix
   12A6 DD E1         [14] 3647 	pop	ix
   12A8 C9            [10] 3648 	ret
                           3649 ;src/man/game.c:256: void man_game_showBuffer(){
                           3650 ;	---------------------------------
                           3651 ; Function man_game_showBuffer
                           3652 ; ---------------------------------
   12A9                    3653 _man_game_showBuffer::
   12A9 CDr00r00      [17] 3654 	call	___sdcc_enter_ix
   12AC F5            [11] 3655 	push	af
   12AD F5            [11] 3656 	push	af
   12AE F5            [11] 3657 	push	af
                           3658 ;src/man/game.c:257: Cls();
   12AF CDr00r00      [17] 3659 	call	_Cls
                           3660 ;src/man/game.c:258: Screen(1);
   12B2 3E 01         [ 7] 3661 	ld	a, #0x01
   12B4 F5            [11] 3662 	push	af
   12B5 33            [ 6] 3663 	inc	sp
   12B6 CDr00r00      [17] 3664 	call	_Screen
   12B9 33            [ 6] 3665 	inc	sp
                           3666 ;src/man/game.c:260: printf("%d",&buffer[0]);
   12BA 21rCEr01      [10] 3667 	ld	hl, #_buffer
   12BD E5            [11] 3668 	push	hl
   12BE 21rABr13      [10] 3669 	ld	hl, #___str_10
   12C1 E5            [11] 3670 	push	hl
   12C2 CDr00r00      [17] 3671 	call	_printf
   12C5 F1            [10] 3672 	pop	af
                           3673 ;src/man/game.c:261: printf("\r\n");
   12C6 21rAEr13      [10] 3674 	ld	hl, #___str_12
   12C9 E3            [19] 3675 	ex	(sp),hl
   12CA CDr00r00      [17] 3676 	call	_puts
   12CD F1            [10] 3677 	pop	af
                           3678 ;src/man/game.c:265: for (int f=4; f<numeroFilas;f++){
   12CE 01 04 00      [10] 3679 	ld	bc, #0x0004
   12D1                    3680 00107$:
   12D1 79            [ 4] 3681 	ld	a, c
   12D2 D6 06         [ 7] 3682 	sub	a, #0x06
   12D4 78            [ 4] 3683 	ld	a, b
   12D5 17            [ 4] 3684 	rla
   12D6 3F            [ 4] 3685 	ccf
   12D7 1F            [ 4] 3686 	rra
   12D8 DE 80         [ 7] 3687 	sbc	a, #0x80
   12DA D2rA6r13      [10] 3688 	jp	NC, 00109$
                           3689 ;src/man/game.c:266: printf("\r\nFila %d\r\n  ",f);
   12DD C5            [11] 3690 	push	bc
   12DE C5            [11] 3691 	push	bc
   12DF 21rB0r13      [10] 3692 	ld	hl, #___str_13
   12E2 E5            [11] 3693 	push	hl
   12E3 CDr00r00      [17] 3694 	call	_printf
   12E6 F1            [10] 3695 	pop	af
   12E7 F1            [10] 3696 	pop	af
   12E8 C1            [10] 3697 	pop	bc
                           3698 ;src/man/game.c:267: for (int c=0; c<numeroColumnas;c++){
   12E9 69            [ 4] 3699 	ld	l, c
   12EA 60            [ 4] 3700 	ld	h, b
   12EB 29            [11] 3701 	add	hl, hl
   12EC 29            [11] 3702 	add	hl, hl
   12ED 29            [11] 3703 	add	hl, hl
   12EE 29            [11] 3704 	add	hl, hl
   12EF 29            [11] 3705 	add	hl, hl
   12F0 E3            [19] 3706 	ex	(sp), hl
   12F1 11 00 00      [10] 3707 	ld	de, #0x0000
   12F4                    3708 00104$:
   12F4 7B            [ 4] 3709 	ld	a, e
   12F5 D6 20         [ 7] 3710 	sub	a, #0x20
   12F7 7A            [ 4] 3711 	ld	a, d
   12F8 17            [ 4] 3712 	rla
   12F9 3F            [ 4] 3713 	ccf
   12FA 1F            [ 4] 3714 	rra
   12FB DE 80         [ 7] 3715 	sbc	a, #0x80
   12FD D2rA2r13      [10] 3716 	jp	NC, 00108$
                           3717 ;src/man/game.c:268: columnaEnTileset=(((buffer[c+(f*numeroColumnas)]/32)+1)*32)-(buffer[c+(f*numeroColumnas)]);
   1300 E1            [10] 3718 	pop	hl
   1301 E5            [11] 3719 	push	hl
   1302 19            [11] 3720 	add	hl, de
   1303 7D            [ 4] 3721 	ld	a, l
   1304 C6rCE         [ 7] 3722 	add	a, #<(_buffer)
   1306 DD 77 FC      [19] 3723 	ld	-4 (ix), a
   1309 7C            [ 4] 3724 	ld	a, h
   130A CEs01         [ 7] 3725 	adc	a, #>(_buffer)
   130C DD 77 FD      [19] 3726 	ld	-3 (ix), a
   130F DD 6E FC      [19] 3727 	ld	l, -4 (ix)
   1312 DD 66 FD      [19] 3728 	ld	h, -3 (ix)
   1315 7E            [ 7] 3729 	ld	a, (hl)
   1316 DD 77 FE      [19] 3730 	ld	-2 (ix), a
   1319 AF            [ 4] 3731 	xor	a, a
   131A DD 77 FF      [19] 3732 	ld	-1 (ix), a
   131D DD 6E FE      [19] 3733 	ld	l, -2 (ix)
   1320 DD 66 FF      [19] 3734 	ld	h, -1 (ix)
   1323 DD CB FF 7E   [20] 3735 	bit	7, -1 (ix)
   1327 28 0C         [12] 3736 	jr	Z,00111$
   1329 DD 7E FE      [19] 3737 	ld	a, -2 (ix)
   132C C6 1F         [ 7] 3738 	add	a, #0x1f
   132E 6F            [ 4] 3739 	ld	l, a
   132F DD 7E FF      [19] 3740 	ld	a, -1 (ix)
   1332 CE 00         [ 7] 3741 	adc	a, #0x00
   1334 67            [ 4] 3742 	ld	h, a
   1335                    3743 00111$:
   1335 3E 05         [ 7] 3744 	ld	a, #0x05
   1337                    3745 00145$:
   1337 CB 2C         [ 8] 3746 	sra	h
   1339 CB 1D         [ 8] 3747 	rr	l
   133B 3D            [ 4] 3748 	dec	a
   133C 20 F9         [12] 3749 	jr	NZ,00145$
   133E 23            [ 6] 3750 	inc	hl
   133F 29            [11] 3751 	add	hl, hl
   1340 29            [11] 3752 	add	hl, hl
   1341 29            [11] 3753 	add	hl, hl
   1342 29            [11] 3754 	add	hl, hl
   1343 29            [11] 3755 	add	hl, hl
   1344 7D            [ 4] 3756 	ld	a, l
   1345 DD 96 FE      [19] 3757 	sub	a, -2 (ix)
   1348 6F            [ 4] 3758 	ld	l, a
   1349 7C            [ 4] 3759 	ld	a, h
   134A DD 9E FF      [19] 3760 	sbc	a, -1 (ix)
   134D 67            [ 4] 3761 	ld	h, a
                           3762 ;src/man/game.c:269: resultado=(32-columnaEnTileset)*8;
   134E 3E 20         [ 7] 3763 	ld	a, #0x20
   1350 95            [ 4] 3764 	sub	a, l
   1351 6F            [ 4] 3765 	ld	l, a
   1352 3E 00         [ 7] 3766 	ld	a, #0x00
   1354 9C            [ 4] 3767 	sbc	a, h
   1355 67            [ 4] 3768 	ld	h, a
   1356 29            [11] 3769 	add	hl, hl
   1357 29            [11] 3770 	add	hl, hl
   1358 29            [11] 3771 	add	hl, hl
   1359 22rFBr71      [16] 3772 	ld	(_resultado), hl
                           3773 ;src/man/game.c:270: printf("%d ",((buffer[c+(f*numeroColumnas)]/32)+1)*32);
   135C DD 6E FC      [19] 3774 	ld	l, -4 (ix)
   135F DD 66 FD      [19] 3775 	ld	h, -3 (ix)
   1362 6E            [ 7] 3776 	ld	l, (hl)
   1363 26 00         [ 7] 3777 	ld	h, #0x00
   1365 DD 75 FE      [19] 3778 	ld	-2 (ix), l
   1368 DD 74 FF      [19] 3779 	ld	-1 (ix), h
   136B CB 7C         [ 8] 3780 	bit	7, h
   136D 28 0C         [12] 3781 	jr	Z,00112$
   136F 7D            [ 4] 3782 	ld	a, l
   1370 C6 1F         [ 7] 3783 	add	a, #0x1f
   1372 DD 77 FE      [19] 3784 	ld	-2 (ix), a
   1375 7C            [ 4] 3785 	ld	a, h
   1376 CE 00         [ 7] 3786 	adc	a, #0x00
   1378 DD 77 FF      [19] 3787 	ld	-1 (ix), a
   137B                    3788 00112$:
   137B DD 6E FE      [19] 3789 	ld	l, -2 (ix)
   137E DD 66 FF      [19] 3790 	ld	h, -1 (ix)
   1381 3E 05         [ 7] 3791 	ld	a, #0x05
   1383                    3792 00146$:
   1383 CB 2C         [ 8] 3793 	sra	h
   1385 CB 1D         [ 8] 3794 	rr	l
   1387 3D            [ 4] 3795 	dec	a
   1388 20 F9         [12] 3796 	jr	NZ,00146$
   138A 23            [ 6] 3797 	inc	hl
   138B 29            [11] 3798 	add	hl, hl
   138C 29            [11] 3799 	add	hl, hl
   138D 29            [11] 3800 	add	hl, hl
   138E 29            [11] 3801 	add	hl, hl
   138F 29            [11] 3802 	add	hl, hl
   1390 C5            [11] 3803 	push	bc
   1391 D5            [11] 3804 	push	de
   1392 E5            [11] 3805 	push	hl
   1393 21rBEr13      [10] 3806 	ld	hl, #___str_14
   1396 E5            [11] 3807 	push	hl
   1397 CDr00r00      [17] 3808 	call	_printf
   139A F1            [10] 3809 	pop	af
   139B F1            [10] 3810 	pop	af
   139C D1            [10] 3811 	pop	de
   139D C1            [10] 3812 	pop	bc
                           3813 ;src/man/game.c:267: for (int c=0; c<numeroColumnas;c++){
   139E 13            [ 6] 3814 	inc	de
   139F C3rF4r12      [10] 3815 	jp	00104$
   13A2                    3816 00108$:
                           3817 ;src/man/game.c:265: for (int f=4; f<numeroFilas;f++){
   13A2 03            [ 6] 3818 	inc	bc
   13A3 C3rD1r12      [10] 3819 	jp	00107$
   13A6                    3820 00109$:
                           3821 ;src/man/game.c:274: }
   13A6 DD F9         [10] 3822 	ld	sp, ix
   13A8 DD E1         [14] 3823 	pop	ix
   13AA C9            [10] 3824 	ret
   13AB                    3825 ___str_10:
   13AB 25 64              3826 	.ascii "%d"
   13AD 00                 3827 	.db 0x00
   13AE                    3828 ___str_12:
   13AE 0D                 3829 	.db 0x0d
   13AF 00                 3830 	.db 0x00
   13B0                    3831 ___str_13:
   13B0 0D                 3832 	.db 0x0d
   13B1 0A                 3833 	.db 0x0a
   13B2 46 69 6C 61 20 25  3834 	.ascii "Fila %d"
        64
   13B9 0D                 3835 	.db 0x0d
   13BA 0A                 3836 	.db 0x0a
   13BB 20 20              3837 	.ascii "  "
   13BD 00                 3838 	.db 0x00
   13BE                    3839 ___str_14:
   13BE 25 64 20           3840 	.ascii "%d "
   13C1 00                 3841 	.db 0x00
                           3842 ;src/man/game.c:275: void man_game_copiarSpritesVRAM(){
                           3843 ;	---------------------------------
                           3844 ; Function man_game_copiarSpritesVRAM
                           3845 ; ---------------------------------
   13C2                    3846 _man_game_copiarSpritesVRAM::
   13C2 CDr00r00      [17] 3847 	call	___sdcc_enter_ix
   13C5 F5            [11] 3848 	push	af
   13C6 3B            [ 6] 3849 	dec	sp
                           3850 ;src/man/game.c:278: for (char i=0; i<14; i++) {		
   13C7 11 00 00      [10] 3851 	ld	de, #0x0000
   13CA 21 00 00      [10] 3852 	ld	hl, #0x0000
   13CD E3            [19] 3853 	ex	(sp), hl
   13CE AF            [ 4] 3854 	xor	a, a
   13CF DD 77 FF      [19] 3855 	ld	-1 (ix), a
   13D2                    3856 00105$:
   13D2 DD 7E FF      [19] 3857 	ld	a, -1 (ix)
   13D5 D6 0E         [ 7] 3858 	sub	a, #0x0e
   13D7 30 43         [12] 3859 	jr	NC,00101$
                           3860 ;src/man/game.c:282: SetSpritePattern(sprite, &SPRITE_DATA[siguiente],32);
   13D9 3Er00         [ 7] 3861 	ld	a, #<(_SPRITE_DATA)
   13DB DD 86 FD      [19] 3862 	add	a, -3 (ix)
   13DE 4F            [ 4] 3863 	ld	c, a
   13DF 3Es00         [ 7] 3864 	ld	a, #>(_SPRITE_DATA)
   13E1 DD 8E FE      [19] 3865 	adc	a, -2 (ix)
   13E4 47            [ 4] 3866 	ld	b, a
   13E5 63            [ 4] 3867 	ld	h, e
   13E6 D5            [11] 3868 	push	de
   13E7 3E 20         [ 7] 3869 	ld	a, #0x20
   13E9 F5            [11] 3870 	push	af
   13EA 33            [ 6] 3871 	inc	sp
   13EB C5            [11] 3872 	push	bc
   13EC E5            [11] 3873 	push	hl
   13ED 33            [ 6] 3874 	inc	sp
   13EE CDr00r00      [17] 3875 	call	_SetSpritePattern
   13F1 F1            [10] 3876 	pop	af
   13F2 F1            [10] 3877 	pop	af
   13F3 D1            [10] 3878 	pop	de
                           3879 ;src/man/game.c:284: SC5SpriteColors(i, &COLOR_DATA[sprite]);
   13F4 21rA0r01      [10] 3880 	ld	hl, #_COLOR_DATA
   13F7 19            [11] 3881 	add	hl, de
   13F8 DD 4E FF      [19] 3882 	ld	c, -1 (ix)
   13FB 06 00         [ 7] 3883 	ld	b, #0x00
   13FD D5            [11] 3884 	push	de
   13FE E5            [11] 3885 	push	hl
   13FF C5            [11] 3886 	push	bc
   1400 CDr00r00      [17] 3887 	call	_SC5SpriteColors
   1403 F1            [10] 3888 	pop	af
   1404 F1            [10] 3889 	pop	af
   1405 D1            [10] 3890 	pop	de
                           3891 ;src/man/game.c:286: sprite+=4;
   1406 13            [ 6] 3892 	inc	de
   1407 13            [ 6] 3893 	inc	de
   1408 13            [ 6] 3894 	inc	de
   1409 13            [ 6] 3895 	inc	de
                           3896 ;src/man/game.c:288: siguiente += 32;
   140A DD 7E FD      [19] 3897 	ld	a, -3 (ix)
   140D C6 20         [ 7] 3898 	add	a, #0x20
   140F DD 77 FD      [19] 3899 	ld	-3 (ix), a
   1412 30 03         [12] 3900 	jr	NC,00148$
   1414 DD 34 FE      [23] 3901 	inc	-2 (ix)
   1417                    3902 00148$:
                           3903 ;src/man/game.c:278: for (char i=0; i<14; i++) {		
   1417 DD 34 FF      [23] 3904 	inc	-1 (ix)
   141A 18 B6         [12] 3905 	jr	00105$
   141C                    3906 00101$:
                           3907 ;src/man/game.c:292: for (int i=enemy1_plane;i<object_money;i++){
   141C 01 05 00      [10] 3908 	ld	bc, #0x0005
   141F                    3909 00108$:
   141F 79            [ 4] 3910 	ld	a, c
   1420 D6 0F         [ 7] 3911 	sub	a, #0x0f
   1422 78            [ 4] 3912 	ld	a, b
   1423 17            [ 4] 3913 	rla
   1424 3F            [ 4] 3914 	ccf
   1425 1F            [ 4] 3915 	rra
   1426 DE 80         [ 7] 3916 	sbc	a, #0x80
   1428 30 03         [12] 3917 	jr	NC,00102$
   142A 03            [ 6] 3918 	inc	bc
   142B 18 F2         [12] 3919 	jr	00108$
   142D                    3920 00102$:
                           3921 ;src/man/game.c:296: for (int i=object_money;i<object_money+10;i++){
   142D 01 0F 00      [10] 3922 	ld	bc, #0x000f
   1430                    3923 00111$:
   1430 79            [ 4] 3924 	ld	a, c
   1431 D6 19         [ 7] 3925 	sub	a, #0x19
   1433 78            [ 4] 3926 	ld	a, b
   1434 17            [ 4] 3927 	rla
   1435 3F            [ 4] 3928 	ccf
   1436 1F            [ 4] 3929 	rra
   1437 DE 80         [ 7] 3930 	sbc	a, #0x80
   1439 30 03         [12] 3931 	jr	NC,00113$
   143B 03            [ 6] 3932 	inc	bc
   143C 18 F2         [12] 3933 	jr	00111$
   143E                    3934 00113$:
                           3935 ;src/man/game.c:303: }
   143E DD F9         [10] 3936 	ld	sp, ix
   1440 DD E1         [14] 3937 	pop	ix
   1442 C9            [10] 3938 	ret
                           3939 ;src/man/game.c:305: void wait(){
                           3940 ;	---------------------------------
                           3941 ; Function wait
                           3942 ; ---------------------------------
   1443                    3943 _wait::
                           3944 ;src/man/game.c:310: __endasm;
   1443 76            [ 4] 3945 	halt
   1444 76            [ 4] 3946 	halt
   1445 76            [ 4] 3947 	halt
                           3948 ;src/man/game.c:311: }
   1446 C9            [10] 3949 	ret
                           3950 ;src/man/game.c:312: void man_game_cargar_buffer_musica(){
                           3951 ;	---------------------------------
                           3952 ; Function man_game_cargar_buffer_musica
                           3953 ; ---------------------------------
   1447                    3954 _man_game_cargar_buffer_musica::
                           3955 ;src/man/game.c:313: enter_name_and_extension_in_structure( &TFileMusic, &fileNameSong[0]);
   1447 21r64r03      [10] 3956 	ld	hl, #_fileNameSong
   144A E5            [11] 3957 	push	hl
   144B 21rC2r71      [10] 3958 	ld	hl, #_TFileMusic
   144E E5            [11] 3959 	push	hl
   144F CDr6Ar02      [17] 3960 	call	_enter_name_and_extension_in_structure
   1452 F1            [10] 3961 	pop	af
                           3962 ;src/man/game.c:314: fcb_open( &TFileMusic );
   1453 21rC2r71      [10] 3963 	ld	hl, #_TFileMusic
   1456 E3            [19] 3964 	ex	(sp),hl
   1457 CDr00r00      [17] 3965 	call	_fcb_open
                           3966 ;src/man/game.c:315: fcb_read( &TFileMusic, &songBuffer[0], SONG_BUFFER_TAM );  
   145A 21 08 01      [10] 3967 	ld	hl, #0x0108
   145D E3            [19] 3968 	ex	(sp),hl
   145E 21rBAr70      [10] 3969 	ld	hl, #_songBuffer
   1461 E5            [11] 3970 	push	hl
   1462 21rC2r71      [10] 3971 	ld	hl, #_TFileMusic
   1465 E5            [11] 3972 	push	hl
   1466 CDr00r00      [17] 3973 	call	_fcb_read
   1469 F1            [10] 3974 	pop	af
   146A F1            [10] 3975 	pop	af
                           3976 ;src/man/game.c:316: fcb_close( &TFileMusic );
   146B 21rC2r71      [10] 3977 	ld	hl, #_TFileMusic
   146E E3            [19] 3978 	ex	(sp),hl
   146F CDr00r00      [17] 3979 	call	_fcb_close
   1472 F1            [10] 3980 	pop	af
                           3981 ;src/man/game.c:317: }
   1473 C9            [10] 3982 	ret
                           3983 ;src/man/game.c:318: void man_game_reproducir_musica_y_efectos(){
                           3984 ;	---------------------------------
                           3985 ; Function man_game_reproducir_musica_y_efectos
                           3986 ; ---------------------------------
   1474                    3987 _man_game_reproducir_musica_y_efectos::
                           3988 ;src/man/game.c:320: DisableInterupt();
   1474 F3            [ 4] 3989 	di;	
                           3990 ;src/man/game.c:321: PT3Rout();
   1475 CDr00r00      [17] 3991 	call	_PT3Rout
                           3992 ;src/man/game.c:322: PT3Play();
   1478 CDr00r00      [17] 3993 	call	_PT3Play
                           3994 ;src/man/game.c:330: EnableInterupt();
   147B FB            [ 4] 3995 	ei;	
                           3996 ;src/man/game.c:331: }
   147C C9            [10] 3997 	ret
                           3998 ;src/man/game.c:333: void man_game_cargar_buffer_efectos_sonido(){
                           3999 ;	---------------------------------
                           4000 ; Function man_game_cargar_buffer_efectos_sonido
                           4001 ; ---------------------------------
   147D                    4002 _man_game_cargar_buffer_efectos_sonido::
                           4003 ;src/man/game.c:341: }
   147D C9            [10] 4004 	ret
                           4005 ;src/man/game.c:343: void man_game_reproducir_efecto_sonido(char effect){
                           4006 ;	---------------------------------
                           4007 ; Function man_game_reproducir_efecto_sonido
                           4008 ; ---------------------------------
   147E                    4009 _man_game_reproducir_efecto_sonido::
                           4010 ;src/man/game.c:356: }
   147E C9            [10] 4011 	ret
                           4012 ;src/man/game.c:358: void debug(){
                           4013 ;	---------------------------------
                           4014 ; Function debug
                           4015 ; ---------------------------------
   147F                    4016 _debug::
                           4017 ;src/man/game.c:364: TEntity *object=&array_objects[0];
   147F ED 4BrF9r71   [20] 4018 	ld	bc, (_array_objects)
                           4019 ;src/man/game.c:365: BoxFill (0, 23*8, 256, 210, 6, LOGICAL_IMP );
   1483 C5            [11] 4020 	push	bc
   1484 AF            [ 4] 4021 	xor	a, a
   1485 57            [ 4] 4022 	ld	d,a
   1486 1E 06         [ 7] 4023 	ld	e,#0x06
   1488 D5            [11] 4024 	push	de
   1489 21 D2 00      [10] 4025 	ld	hl, #0x00d2
   148C E5            [11] 4026 	push	hl
   148D 21 00 01      [10] 4027 	ld	hl, #0x0100
   1490 E5            [11] 4028 	push	hl
   1491 21 B8 00      [10] 4029 	ld	hl, #0x00b8
   1494 E5            [11] 4030 	push	hl
   1495 2E 00         [ 7] 4031 	ld	l, #0x00
   1497 E5            [11] 4032 	push	hl
   1498 CDr00r00      [17] 4033 	call	_BoxFill
   149B 21 0A 00      [10] 4034 	ld	hl, #10
   149E 39            [11] 4035 	add	hl, sp
   149F F9            [ 6] 4036 	ld	sp, hl
   14A0 CDrB4r01      [17] 4037 	call	_sys_entity_get_num_objects
   14A3 C1            [10] 4038 	pop	bc
   14A4 26 00         [ 7] 4039 	ld	h, #0x00
   14A6 C5            [11] 4040 	push	bc
   14A7 11 0A 00      [10] 4041 	ld	de, #0x000a
   14AA D5            [11] 4042 	push	de
   14AB 11r1Er15      [10] 4043 	ld	de, #___str_15
   14AE D5            [11] 4044 	push	de
   14AF E5            [11] 4045 	push	hl
   14B0 CDr00r00      [17] 4046 	call	_Itoa
   14B3 F1            [10] 4047 	pop	af
   14B4 F1            [10] 4048 	pop	af
   14B5 F1            [10] 4049 	pop	af
   14B6 3E 08         [ 7] 4050 	ld	a, #0x08
   14B8 F5            [11] 4051 	push	af
   14B9 33            [ 6] 4052 	inc	sp
   14BA E5            [11] 4053 	push	hl
   14BB 21 C8 00      [10] 4054 	ld	hl, #0x00c8
   14BE E5            [11] 4055 	push	hl
   14BF 2E 00         [ 7] 4056 	ld	l, #0x00
   14C1 E5            [11] 4057 	push	hl
   14C2 CDr00r00      [17] 4058 	call	_PutText
   14C5 F1            [10] 4059 	pop	af
   14C6 F1            [10] 4060 	pop	af
   14C7 F1            [10] 4061 	pop	af
   14C8 33            [ 6] 4062 	inc	sp
   14C9 C1            [10] 4063 	pop	bc
                           4064 ;src/man/game.c:367: PutText(50,200,Itoa(object->plane,"  ",10),8);
   14CA 11r1Er15      [10] 4065 	ld	de, #___str_15
   14CD 69            [ 4] 4066 	ld	l, c
   14CE 60            [ 4] 4067 	ld	h, b
   14CF 01 11 00      [10] 4068 	ld	bc, #0x0011
   14D2 09            [11] 4069 	add	hl, bc
   14D3 4E            [ 7] 4070 	ld	c, (hl)
   14D4 06 00         [ 7] 4071 	ld	b, #0x00
   14D6 21 0A 00      [10] 4072 	ld	hl, #0x000a
   14D9 E5            [11] 4073 	push	hl
   14DA D5            [11] 4074 	push	de
   14DB C5            [11] 4075 	push	bc
   14DC CDr00r00      [17] 4076 	call	_Itoa
   14DF F1            [10] 4077 	pop	af
   14E0 F1            [10] 4078 	pop	af
   14E1 F1            [10] 4079 	pop	af
   14E2 3E 08         [ 7] 4080 	ld	a, #0x08
   14E4 F5            [11] 4081 	push	af
   14E5 33            [ 6] 4082 	inc	sp
   14E6 E5            [11] 4083 	push	hl
   14E7 21 C8 00      [10] 4084 	ld	hl, #0x00c8
   14EA E5            [11] 4085 	push	hl
   14EB 2E 32         [ 7] 4086 	ld	l, #0x32
   14ED E5            [11] 4087 	push	hl
   14EE CDr00r00      [17] 4088 	call	_PutText
   14F1 F1            [10] 4089 	pop	af
   14F2 F1            [10] 4090 	pop	af
   14F3 F1            [10] 4091 	pop	af
   14F4 33            [ 6] 4092 	inc	sp
                           4093 ;src/man/game.c:368: PutText(100,200,Itoa(enabled_world_change,"  ",10),8);
   14F5 11r1Er15      [10] 4094 	ld	de, #___str_15
   14F8 21rEBr71      [10] 4095 	ld	hl,#_enabled_world_change + 0
   14FB 4E            [ 7] 4096 	ld	c, (hl)
   14FC 06 00         [ 7] 4097 	ld	b, #0x00
   14FE 21 0A 00      [10] 4098 	ld	hl, #0x000a
   1501 E5            [11] 4099 	push	hl
   1502 D5            [11] 4100 	push	de
   1503 C5            [11] 4101 	push	bc
   1504 CDr00r00      [17] 4102 	call	_Itoa
   1507 F1            [10] 4103 	pop	af
   1508 F1            [10] 4104 	pop	af
   1509 F1            [10] 4105 	pop	af
   150A 3E 08         [ 7] 4106 	ld	a, #0x08
   150C F5            [11] 4107 	push	af
   150D 33            [ 6] 4108 	inc	sp
   150E E5            [11] 4109 	push	hl
   150F 21 C8 00      [10] 4110 	ld	hl, #0x00c8
   1512 E5            [11] 4111 	push	hl
   1513 2E 64         [ 7] 4112 	ld	l, #0x64
   1515 E5            [11] 4113 	push	hl
   1516 CDr00r00      [17] 4114 	call	_PutText
   1519 F1            [10] 4115 	pop	af
   151A F1            [10] 4116 	pop	af
   151B F1            [10] 4117 	pop	af
   151C 33            [ 6] 4118 	inc	sp
                           4119 ;src/man/game.c:383: }
   151D C9            [10] 4120 	ret
   151E                    4121 ___str_15:
   151E 20 20              4122 	.ascii "  "
   1520 00                 4123 	.db 0x00
                           4124 ;src/man/game.c:385: void pintar_HUD(){
                           4125 ;	---------------------------------
                           4126 ; Function pintar_HUD
                           4127 ; ---------------------------------
   1521                    4128 _pintar_HUD::
                           4129 ;src/man/game.c:387: BoxFill (0, 23*8, 256, 210, 4, LOGICAL_IMP );
   1521 AF            [ 4] 4130 	xor	a, a
   1522 57            [ 4] 4131 	ld	d,a
   1523 1E 04         [ 7] 4132 	ld	e,#0x04
   1525 D5            [11] 4133 	push	de
   1526 21 D2 00      [10] 4134 	ld	hl, #0x00d2
   1529 E5            [11] 4135 	push	hl
   152A 21 00 01      [10] 4136 	ld	hl, #0x0100
   152D E5            [11] 4137 	push	hl
   152E 21 B8 00      [10] 4138 	ld	hl, #0x00b8
   1531 E5            [11] 4139 	push	hl
   1532 2E 00         [ 7] 4140 	ld	l, #0x00
   1534 E5            [11] 4141 	push	hl
   1535 CDr00r00      [17] 4142 	call	_BoxFill
   1538 21 0A 00      [10] 4143 	ld	hl, #10
   153B 39            [11] 4144 	add	hl, sp
   153C F9            [ 6] 4145 	ld	sp, hl
                           4146 ;src/man/game.c:389: HMMM(0,256+16,0,188,16,16);
   153D 21 10 00      [10] 4147 	ld	hl, #0x0010
   1540 E5            [11] 4148 	push	hl
   1541 2E 10         [ 7] 4149 	ld	l, #0x10
   1543 E5            [11] 4150 	push	hl
   1544 2E BC         [ 7] 4151 	ld	l, #0xbc
   1546 E5            [11] 4152 	push	hl
   1547 2E 00         [ 7] 4153 	ld	l, #0x00
   1549 E5            [11] 4154 	push	hl
   154A 21 10 01      [10] 4155 	ld	hl, #0x0110
   154D E5            [11] 4156 	push	hl
   154E 21 00 00      [10] 4157 	ld	hl, #0x0000
   1551 E5            [11] 4158 	push	hl
   1552 CDr00r00      [17] 4159 	call	_HMMM
   1555 21 0C 00      [10] 4160 	ld	hl, #12
   1558 39            [11] 4161 	add	hl, sp
   1559 F9            [ 6] 4162 	ld	sp, hl
                           4163 ;src/man/game.c:391: HMMM(2*8,256+16,40,188,16,16);
   155A 21 10 00      [10] 4164 	ld	hl, #0x0010
   155D E5            [11] 4165 	push	hl
   155E 2E 10         [ 7] 4166 	ld	l, #0x10
   1560 E5            [11] 4167 	push	hl
   1561 2E BC         [ 7] 4168 	ld	l, #0xbc
   1563 E5            [11] 4169 	push	hl
   1564 2E 28         [ 7] 4170 	ld	l, #0x28
   1566 E5            [11] 4171 	push	hl
   1567 21 10 01      [10] 4172 	ld	hl, #0x0110
   156A E5            [11] 4173 	push	hl
   156B 26 00         [ 7] 4174 	ld	h, #0x00
   156D E5            [11] 4175 	push	hl
   156E CDr00r00      [17] 4176 	call	_HMMM
   1571 21 0C 00      [10] 4177 	ld	hl, #12
   1574 39            [11] 4178 	add	hl, sp
   1575 F9            [ 6] 4179 	ld	sp, hl
                           4180 ;src/man/game.c:393: HMMM(3*8,256,100,188,16,16);
   1576 21 10 00      [10] 4181 	ld	hl, #0x0010
   1579 E5            [11] 4182 	push	hl
   157A 2E 10         [ 7] 4183 	ld	l, #0x10
   157C E5            [11] 4184 	push	hl
   157D 2E BC         [ 7] 4185 	ld	l, #0xbc
   157F E5            [11] 4186 	push	hl
   1580 2E 64         [ 7] 4187 	ld	l, #0x64
   1582 E5            [11] 4188 	push	hl
   1583 21 00 01      [10] 4189 	ld	hl, #0x0100
   1586 E5            [11] 4190 	push	hl
   1587 21 18 00      [10] 4191 	ld	hl, #0x0018
   158A E5            [11] 4192 	push	hl
   158B CDr00r00      [17] 4193 	call	_HMMM
   158E 21 0C 00      [10] 4194 	ld	hl, #12
   1591 39            [11] 4195 	add	hl, sp
   1592 F9            [ 6] 4196 	ld	sp, hl
                           4197 ;src/man/game.c:394: PutText(20,192,Itoa(actual_world," ",10),8);
   1593 11r51r16      [10] 4198 	ld	de, #___str_16
   1596 21rE9r71      [10] 4199 	ld	hl,#_actual_world + 0
   1599 4E            [ 7] 4200 	ld	c, (hl)
   159A 06 00         [ 7] 4201 	ld	b, #0x00
   159C 21 0A 00      [10] 4202 	ld	hl, #0x000a
   159F E5            [11] 4203 	push	hl
   15A0 D5            [11] 4204 	push	de
   15A1 C5            [11] 4205 	push	bc
   15A2 CDr00r00      [17] 4206 	call	_Itoa
   15A5 F1            [10] 4207 	pop	af
   15A6 F1            [10] 4208 	pop	af
   15A7 F1            [10] 4209 	pop	af
   15A8 3E 08         [ 7] 4210 	ld	a, #0x08
   15AA F5            [11] 4211 	push	af
   15AB 33            [ 6] 4212 	inc	sp
   15AC E5            [11] 4213 	push	hl
   15AD 21 C0 00      [10] 4214 	ld	hl, #0x00c0
   15B0 E5            [11] 4215 	push	hl
   15B1 2E 14         [ 7] 4216 	ld	l, #0x14
   15B3 E5            [11] 4217 	push	hl
   15B4 CDr00r00      [17] 4218 	call	_PutText
   15B7 F1            [10] 4219 	pop	af
   15B8 F1            [10] 4220 	pop	af
   15B9 F1            [10] 4221 	pop	af
   15BA 33            [ 6] 4222 	inc	sp
                           4223 ;src/man/game.c:395: PutText(60,192,Itoa(player->lives," ",10),8);
   15BB 11r51r16      [10] 4224 	ld	de, #___str_16
   15BE 2ArE7r71      [16] 4225 	ld	hl, (_player)
   15C1 01 14 00      [10] 4226 	ld	bc, #0x0014
   15C4 09            [11] 4227 	add	hl, bc
   15C5 4E            [ 7] 4228 	ld	c, (hl)
   15C6 06 00         [ 7] 4229 	ld	b, #0x00
   15C8 21 0A 00      [10] 4230 	ld	hl, #0x000a
   15CB E5            [11] 4231 	push	hl
   15CC D5            [11] 4232 	push	de
   15CD C5            [11] 4233 	push	bc
   15CE CDr00r00      [17] 4234 	call	_Itoa
   15D1 F1            [10] 4235 	pop	af
   15D2 F1            [10] 4236 	pop	af
   15D3 F1            [10] 4237 	pop	af
   15D4 3E 08         [ 7] 4238 	ld	a, #0x08
   15D6 F5            [11] 4239 	push	af
   15D7 33            [ 6] 4240 	inc	sp
   15D8 E5            [11] 4241 	push	hl
   15D9 21 C0 00      [10] 4242 	ld	hl, #0x00c0
   15DC E5            [11] 4243 	push	hl
   15DD 2E 3C         [ 7] 4244 	ld	l, #0x3c
   15DF E5            [11] 4245 	push	hl
   15E0 CDr00r00      [17] 4246 	call	_PutText
   15E3 F1            [10] 4247 	pop	af
   15E4 F1            [10] 4248 	pop	af
   15E5 F1            [10] 4249 	pop	af
   15E6 33            [ 6] 4250 	inc	sp
                           4251 ;src/man/game.c:396: PutText(120,192,Itoa(player->points," ",10),8);
   15E7 11r51r16      [10] 4252 	ld	de, #___str_16
   15EA 2ArE7r71      [16] 4253 	ld	hl, (_player)
   15ED 01 12 00      [10] 4254 	ld	bc, #0x0012
   15F0 09            [11] 4255 	add	hl, bc
   15F1 4E            [ 7] 4256 	ld	c, (hl)
   15F2 23            [ 6] 4257 	inc	hl
   15F3 46            [ 7] 4258 	ld	b, (hl)
   15F4 21 0A 00      [10] 4259 	ld	hl, #0x000a
   15F7 E5            [11] 4260 	push	hl
   15F8 D5            [11] 4261 	push	de
   15F9 C5            [11] 4262 	push	bc
   15FA CDr00r00      [17] 4263 	call	_Itoa
   15FD F1            [10] 4264 	pop	af
   15FE F1            [10] 4265 	pop	af
   15FF F1            [10] 4266 	pop	af
   1600 3E 08         [ 7] 4267 	ld	a, #0x08
   1602 F5            [11] 4268 	push	af
   1603 33            [ 6] 4269 	inc	sp
   1604 E5            [11] 4270 	push	hl
   1605 21 C0 00      [10] 4271 	ld	hl, #0x00c0
   1608 E5            [11] 4272 	push	hl
   1609 2E 78         [ 7] 4273 	ld	l, #0x78
   160B E5            [11] 4274 	push	hl
   160C CDr00r00      [17] 4275 	call	_PutText
   160F F1            [10] 4276 	pop	af
   1610 F1            [10] 4277 	pop	af
   1611 F1            [10] 4278 	pop	af
   1612 33            [ 6] 4279 	inc	sp
                           4280 ;src/man/game.c:397: PutText(140,192,"Need:",0);
   1613 AF            [ 4] 4281 	xor	a, a
   1614 F5            [11] 4282 	push	af
   1615 33            [ 6] 4283 	inc	sp
   1616 21r53r16      [10] 4284 	ld	hl, #___str_17
   1619 E5            [11] 4285 	push	hl
   161A 21 C0 00      [10] 4286 	ld	hl, #0x00c0
   161D E5            [11] 4287 	push	hl
   161E 2E 8C         [ 7] 4288 	ld	l, #0x8c
   1620 E5            [11] 4289 	push	hl
   1621 CDr00r00      [17] 4290 	call	_PutText
   1624 F1            [10] 4291 	pop	af
   1625 F1            [10] 4292 	pop	af
   1626 F1            [10] 4293 	pop	af
   1627 33            [ 6] 4294 	inc	sp
                           4295 ;src/man/game.c:398: PutText(180,192,Itoa(world_money,"  ",10),8);
   1628 11r59r16      [10] 4296 	ld	de, #___str_18+0
   162B 21rECr71      [10] 4297 	ld	hl,#_world_money + 0
   162E 4E            [ 7] 4298 	ld	c, (hl)
   162F 06 00         [ 7] 4299 	ld	b, #0x00
   1631 21 0A 00      [10] 4300 	ld	hl, #0x000a
   1634 E5            [11] 4301 	push	hl
   1635 D5            [11] 4302 	push	de
   1636 C5            [11] 4303 	push	bc
   1637 CDr00r00      [17] 4304 	call	_Itoa
   163A F1            [10] 4305 	pop	af
   163B F1            [10] 4306 	pop	af
   163C F1            [10] 4307 	pop	af
   163D 3E 08         [ 7] 4308 	ld	a, #0x08
   163F F5            [11] 4309 	push	af
   1640 33            [ 6] 4310 	inc	sp
   1641 E5            [11] 4311 	push	hl
   1642 21 C0 00      [10] 4312 	ld	hl, #0x00c0
   1645 E5            [11] 4313 	push	hl
   1646 2E B4         [ 7] 4314 	ld	l, #0xb4
   1648 E5            [11] 4315 	push	hl
   1649 CDr00r00      [17] 4316 	call	_PutText
   164C F1            [10] 4317 	pop	af
   164D F1            [10] 4318 	pop	af
   164E F1            [10] 4319 	pop	af
   164F 33            [ 6] 4320 	inc	sp
                           4321 ;src/man/game.c:401: }
   1650 C9            [10] 4322 	ret
   1651                    4323 ___str_16:
   1651 20                 4324 	.ascii " "
   1652 00                 4325 	.db 0x00
   1653                    4326 ___str_17:
   1653 4E 65 65 64 3A     4327 	.ascii "Need:"
   1658 00                 4328 	.db 0x00
   1659                    4329 ___str_18:
   1659 20 20              4330 	.ascii "  "
   165B 00                 4331 	.db 0x00
                           4332 ;watchmen.c:4: void main(void) 
                           4333 ;	---------------------------------
                           4334 ; Function main
                           4335 ; ---------------------------------
   165C                    4336 _main::
                           4337 ;watchmen.c:6: man_game_init();
   165C CDr77r0C      [17] 4338 	call	_man_game_init
                           4339 ;watchmen.c:7: man_game_play();
                           4340 ;watchmen.c:8: }
   165F C3rFEr0D      [10] 4341 	jp	_man_game_play
                           4342 	.area _CODE
                           4343 	.area _INITIALIZER
   0000                    4344 __xinit__SPRITE_DATA:
   0000 0F                 4345 	.db #0x0f	; 15
   0001 0F                 4346 	.db #0x0f	; 15
   0002 7F                 4347 	.db #0x7f	; 127
   0003 07                 4348 	.db #0x07	; 7
   0004 04                 4349 	.db #0x04	; 4
   0005 04                 4350 	.db #0x04	; 4
   0006 1F                 4351 	.db #0x1f	; 31
   0007 1F                 4352 	.db #0x1f	; 31
   0008 1F                 4353 	.db #0x1f	; 31
   0009 1F                 4354 	.db #0x1f	; 31
   000A 03                 4355 	.db #0x03	; 3
   000B 0F                 4356 	.db #0x0f	; 15
   000C 06                 4357 	.db #0x06	; 6
   000D 18                 4358 	.db #0x18	; 24
   000E 07                 4359 	.db #0x07	; 7
   000F 0F                 4360 	.db #0x0f	; 15
   0010 F0                 4361 	.db #0xf0	; 240
   0011 F0                 4362 	.db #0xf0	; 240
   0012 FE                 4363 	.db #0xfe	; 254
   0013 F8                 4364 	.db #0xf8	; 248
   0014 14                 4365 	.db #0x14	; 20
   0015 E6                 4366 	.db #0xe6	; 230
   0016 EE                 4367 	.db #0xee	; 238
   0017 EC                 4368 	.db #0xec	; 236
   0018 EC                 4369 	.db #0xec	; 236
   0019 C0                 4370 	.db #0xc0	; 192
   001A E0                 4371 	.db #0xe0	; 224
   001B F0                 4372 	.db #0xf0	; 240
   001C 78                 4373 	.db #0x78	; 120	'x'
   001D F8                 4374 	.db #0xf8	; 248
   001E 1C                 4375 	.db #0x1c	; 28
   001F 3C                 4376 	.db #0x3c	; 60
   0020 0F                 4377 	.db #0x0f	; 15
   0021 0F                 4378 	.db #0x0f	; 15
   0022 7F                 4379 	.db #0x7f	; 127
   0023 07                 4380 	.db #0x07	; 7
   0024 04                 4381 	.db #0x04	; 4
   0025 04                 4382 	.db #0x04	; 4
   0026 1F                 4383 	.db #0x1f	; 31
   0027 1F                 4384 	.db #0x1f	; 31
   0028 1F                 4385 	.db #0x1f	; 31
   0029 1F                 4386 	.db #0x1f	; 31
   002A 03                 4387 	.db #0x03	; 3
   002B 0F                 4388 	.db #0x0f	; 15
   002C 06                 4389 	.db #0x06	; 6
   002D 18                 4390 	.db #0x18	; 24
   002E 07                 4391 	.db #0x07	; 7
   002F 0F                 4392 	.db #0x0f	; 15
   0030 F0                 4393 	.db #0xf0	; 240
   0031 F0                 4394 	.db #0xf0	; 240
   0032 FE                 4395 	.db #0xfe	; 254
   0033 F8                 4396 	.db #0xf8	; 248
   0034 14                 4397 	.db #0x14	; 20
   0035 E6                 4398 	.db #0xe6	; 230
   0036 EE                 4399 	.db #0xee	; 238
   0037 EC                 4400 	.db #0xec	; 236
   0038 EC                 4401 	.db #0xec	; 236
   0039 C0                 4402 	.db #0xc0	; 192
   003A E0                 4403 	.db #0xe0	; 224
   003B F0                 4404 	.db #0xf0	; 240
   003C 78                 4405 	.db #0x78	; 120	'x'
   003D F8                 4406 	.db #0xf8	; 248
   003E C0                 4407 	.db #0xc0	; 192
   003F C0                 4408 	.db #0xc0	; 192
   0040 0F                 4409 	.db #0x0f	; 15
   0041 0F                 4410 	.db #0x0f	; 15
   0042 7F                 4411 	.db #0x7f	; 127
   0043 1F                 4412 	.db #0x1f	; 31
   0044 28                 4413 	.db #0x28	; 40
   0045 67                 4414 	.db #0x67	; 103	'g'
   0046 77                 4415 	.db #0x77	; 119	'w'
   0047 37                 4416 	.db #0x37	; 55	'7'
   0048 37                 4417 	.db #0x37	; 55	'7'
   0049 03                 4418 	.db #0x03	; 3
   004A 07                 4419 	.db #0x07	; 7
   004B 0F                 4420 	.db #0x0f	; 15
   004C 1E                 4421 	.db #0x1e	; 30
   004D 1F                 4422 	.db #0x1f	; 31
   004E 38                 4423 	.db #0x38	; 56	'8'
   004F 3C                 4424 	.db #0x3c	; 60
   0050 F0                 4425 	.db #0xf0	; 240
   0051 F0                 4426 	.db #0xf0	; 240
   0052 FE                 4427 	.db #0xfe	; 254
   0053 E0                 4428 	.db #0xe0	; 224
   0054 20                 4429 	.db #0x20	; 32
   0055 20                 4430 	.db #0x20	; 32
   0056 F8                 4431 	.db #0xf8	; 248
   0057 F8                 4432 	.db #0xf8	; 248
   0058 F8                 4433 	.db #0xf8	; 248
   0059 F8                 4434 	.db #0xf8	; 248
   005A C0                 4435 	.db #0xc0	; 192
   005B F0                 4436 	.db #0xf0	; 240
   005C 60                 4437 	.db #0x60	; 96
   005D 18                 4438 	.db #0x18	; 24
   005E E0                 4439 	.db #0xe0	; 224
   005F F0                 4440 	.db #0xf0	; 240
   0060 0F                 4441 	.db #0x0f	; 15
   0061 0F                 4442 	.db #0x0f	; 15
   0062 7F                 4443 	.db #0x7f	; 127
   0063 1F                 4444 	.db #0x1f	; 31
   0064 28                 4445 	.db #0x28	; 40
   0065 67                 4446 	.db #0x67	; 103	'g'
   0066 77                 4447 	.db #0x77	; 119	'w'
   0067 37                 4448 	.db #0x37	; 55	'7'
   0068 37                 4449 	.db #0x37	; 55	'7'
   0069 03                 4450 	.db #0x03	; 3
   006A 07                 4451 	.db #0x07	; 7
   006B 0F                 4452 	.db #0x0f	; 15
   006C 1E                 4453 	.db #0x1e	; 30
   006D 1F                 4454 	.db #0x1f	; 31
   006E 03                 4455 	.db #0x03	; 3
   006F 03                 4456 	.db #0x03	; 3
   0070 F0                 4457 	.db #0xf0	; 240
   0071 F0                 4458 	.db #0xf0	; 240
   0072 FE                 4459 	.db #0xfe	; 254
   0073 E0                 4460 	.db #0xe0	; 224
   0074 20                 4461 	.db #0x20	; 32
   0075 20                 4462 	.db #0x20	; 32
   0076 F8                 4463 	.db #0xf8	; 248
   0077 F8                 4464 	.db #0xf8	; 248
   0078 F8                 4465 	.db #0xf8	; 248
   0079 F8                 4466 	.db #0xf8	; 248
   007A C0                 4467 	.db #0xc0	; 192
   007B F0                 4468 	.db #0xf0	; 240
   007C 60                 4469 	.db #0x60	; 96
   007D 18                 4470 	.db #0x18	; 24
   007E E0                 4471 	.db #0xe0	; 224
   007F F0                 4472 	.db #0xf0	; 240
   0080 0F                 4473 	.db #0x0f	; 15
   0081 0F                 4474 	.db #0x0f	; 15
   0082 7F                 4475 	.db #0x7f	; 127
   0083 07                 4476 	.db #0x07	; 7
   0084 07                 4477 	.db #0x07	; 7
   0085 0F                 4478 	.db #0x0f	; 15
   0086 0F                 4479 	.db #0x0f	; 15
   0087 0F                 4480 	.db #0x0f	; 15
   0088 03                 4481 	.db #0x03	; 3
   0089 0B                 4482 	.db #0x0b	; 11
   008A 0F                 4483 	.db #0x0f	; 15
   008B 0F                 4484 	.db #0x0f	; 15
   008C 07                 4485 	.db #0x07	; 7
   008D 07                 4486 	.db #0x07	; 7
   008E 03                 4487 	.db #0x03	; 3
   008F 07                 4488 	.db #0x07	; 7
   0090 F0                 4489 	.db #0xf0	; 240
   0091 F0                 4490 	.db #0xf0	; 240
   0092 FE                 4491 	.db #0xfe	; 254
   0093 E0                 4492 	.db #0xe0	; 224
   0094 E0                 4493 	.db #0xe0	; 224
   0095 F0                 4494 	.db #0xf0	; 240
   0096 F0                 4495 	.db #0xf0	; 240
   0097 F0                 4496 	.db #0xf0	; 240
   0098 C0                 4497 	.db #0xc0	; 192
   0099 D0                 4498 	.db #0xd0	; 208
   009A F0                 4499 	.db #0xf0	; 240
   009B F0                 4500 	.db #0xf0	; 240
   009C E0                 4501 	.db #0xe0	; 224
   009D E0                 4502 	.db #0xe0	; 224
   009E C0                 4503 	.db #0xc0	; 192
   009F E0                 4504 	.db #0xe0	; 224
   00A0 0F                 4505 	.db #0x0f	; 15
   00A1 0F                 4506 	.db #0x0f	; 15
   00A2 7F                 4507 	.db #0x7f	; 127
   00A3 07                 4508 	.db #0x07	; 7
   00A4 07                 4509 	.db #0x07	; 7
   00A5 0F                 4510 	.db #0x0f	; 15
   00A6 07                 4511 	.db #0x07	; 7
   00A7 07                 4512 	.db #0x07	; 7
   00A8 03                 4513 	.db #0x03	; 3
   00A9 03                 4514 	.db #0x03	; 3
   00AA 07                 4515 	.db #0x07	; 7
   00AB 0F                 4516 	.db #0x0f	; 15
   00AC 07                 4517 	.db #0x07	; 7
   00AD 07                 4518 	.db #0x07	; 7
   00AE 03                 4519 	.db #0x03	; 3
   00AF 03                 4520 	.db #0x03	; 3
   00B0 F0                 4521 	.db #0xf0	; 240
   00B1 F0                 4522 	.db #0xf0	; 240
   00B2 FE                 4523 	.db #0xfe	; 254
   00B3 E0                 4524 	.db #0xe0	; 224
   00B4 E0                 4525 	.db #0xe0	; 224
   00B5 F0                 4526 	.db #0xf0	; 240
   00B6 E0                 4527 	.db #0xe0	; 224
   00B7 E0                 4528 	.db #0xe0	; 224
   00B8 C0                 4529 	.db #0xc0	; 192
   00B9 C0                 4530 	.db #0xc0	; 192
   00BA E0                 4531 	.db #0xe0	; 224
   00BB F0                 4532 	.db #0xf0	; 240
   00BC E0                 4533 	.db #0xe0	; 224
   00BD E0                 4534 	.db #0xe0	; 224
   00BE C0                 4535 	.db #0xc0	; 192
   00BF C0                 4536 	.db #0xc0	; 192
   00C0 0F                 4537 	.db #0x0f	; 15
   00C1 0F                 4538 	.db #0x0f	; 15
   00C2 7F                 4539 	.db #0x7f	; 127
   00C3 07                 4540 	.db #0x07	; 7
   00C4 04                 4541 	.db #0x04	; 4
   00C5 04                 4542 	.db #0x04	; 4
   00C6 1F                 4543 	.db #0x1f	; 31
   00C7 1F                 4544 	.db #0x1f	; 31
   00C8 0F                 4545 	.db #0x0f	; 15
   00C9 17                 4546 	.db #0x17	; 23
   00CA 0B                 4547 	.db #0x0b	; 11
   00CB 07                 4548 	.db #0x07	; 7
   00CC 01                 4549 	.db #0x01	; 1
   00CD 00                 4550 	.db #0x00	; 0
   00CE 00                 4551 	.db #0x00	; 0
   00CF 00                 4552 	.db #0x00	; 0
   00D0 F0                 4553 	.db #0xf0	; 240
   00D1 F0                 4554 	.db #0xf0	; 240
   00D2 FE                 4555 	.db #0xfe	; 254
   00D3 C0                 4556 	.db #0xc0	; 192
   00D4 70                 4557 	.db #0x70	; 112	'p'
   00D5 F0                 4558 	.db #0xf0	; 240
   00D6 F0                 4559 	.db #0xf0	; 240
   00D7 F0                 4560 	.db #0xf0	; 240
   00D8 E0                 4561 	.db #0xe0	; 224
   00D9 C0                 4562 	.db #0xc0	; 192
   00DA E0                 4563 	.db #0xe0	; 224
   00DB F0                 4564 	.db #0xf0	; 240
   00DC F8                 4565 	.db #0xf8	; 248
   00DD F8                 4566 	.db #0xf8	; 248
   00DE 1C                 4567 	.db #0x1c	; 28
   00DF 3C                 4568 	.db #0x3c	; 60
   00E0 0F                 4569 	.db #0x0f	; 15
   00E1 0F                 4570 	.db #0x0f	; 15
   00E2 7F                 4571 	.db #0x7f	; 127
   00E3 03                 4572 	.db #0x03	; 3
   00E4 0E                 4573 	.db #0x0e	; 14
   00E5 0F                 4574 	.db #0x0f	; 15
   00E6 0F                 4575 	.db #0x0f	; 15
   00E7 0F                 4576 	.db #0x0f	; 15
   00E8 07                 4577 	.db #0x07	; 7
   00E9 03                 4578 	.db #0x03	; 3
   00EA 07                 4579 	.db #0x07	; 7
   00EB 0F                 4580 	.db #0x0f	; 15
   00EC 1F                 4581 	.db #0x1f	; 31
   00ED 1F                 4582 	.db #0x1f	; 31
   00EE 38                 4583 	.db #0x38	; 56	'8'
   00EF 3C                 4584 	.db #0x3c	; 60
   00F0 F0                 4585 	.db #0xf0	; 240
   00F1 F0                 4586 	.db #0xf0	; 240
   00F2 FE                 4587 	.db #0xfe	; 254
   00F3 E0                 4588 	.db #0xe0	; 224
   00F4 20                 4589 	.db #0x20	; 32
   00F5 20                 4590 	.db #0x20	; 32
   00F6 F8                 4591 	.db #0xf8	; 248
   00F7 F8                 4592 	.db #0xf8	; 248
   00F8 F0                 4593 	.db #0xf0	; 240
   00F9 E8                 4594 	.db #0xe8	; 232
   00FA D0                 4595 	.db #0xd0	; 208
   00FB E0                 4596 	.db #0xe0	; 224
   00FC 80                 4597 	.db #0x80	; 128
   00FD 00                 4598 	.db #0x00	; 0
   00FE 00                 4599 	.db #0x00	; 0
   00FF 00                 4600 	.db #0x00	; 0
   0100 03                 4601 	.db #0x03	; 3
   0101 07                 4602 	.db #0x07	; 7
   0102 07                 4603 	.db #0x07	; 7
   0103 07                 4604 	.db #0x07	; 7
   0104 3F                 4605 	.db #0x3f	; 63
   0105 7F                 4606 	.db #0x7f	; 127
   0106 73                 4607 	.db #0x73	; 115	's'
   0107 79                 4608 	.db #0x79	; 121	'y'
   0108 78                 4609 	.db #0x78	; 120	'x'
   0109 7F                 4610 	.db #0x7f	; 127
   010A 3F                 4611 	.db #0x3f	; 63
   010B 3E                 4612 	.db #0x3e	; 62
   010C 06                 4613 	.db #0x06	; 6
   010D 0C                 4614 	.db #0x0c	; 12
   010E 08                 4615 	.db #0x08	; 8
   010F 0C                 4616 	.db #0x0c	; 12
   0110 C0                 4617 	.db #0xc0	; 192
   0111 E0                 4618 	.db #0xe0	; 224
   0112 A0                 4619 	.db #0xa0	; 160
   0113 E0                 4620 	.db #0xe0	; 224
   0114 20                 4621 	.db #0x20	; 32
   0115 E0                 4622 	.db #0xe0	; 224
   0116 80                 4623 	.db #0x80	; 128
   0117 F0                 4624 	.db #0xf0	; 240
   0118 10                 4625 	.db #0x10	; 16
   0119 F0                 4626 	.db #0xf0	; 240
   011A E0                 4627 	.db #0xe0	; 224
   011B 40                 4628 	.db #0x40	; 64
   011C 40                 4629 	.db #0x40	; 64
   011D 60                 4630 	.db #0x60	; 96
   011E 30                 4631 	.db #0x30	; 48	'0'
   011F 00                 4632 	.db #0x00	; 0
   0120 00                 4633 	.db #0x00	; 0
   0121 03                 4634 	.db #0x03	; 3
   0122 07                 4635 	.db #0x07	; 7
   0123 07                 4636 	.db #0x07	; 7
   0124 07                 4637 	.db #0x07	; 7
   0125 3F                 4638 	.db #0x3f	; 63
   0126 7F                 4639 	.db #0x7f	; 127
   0127 7B                 4640 	.db #0x7b	; 123
   0128 79                 4641 	.db #0x79	; 121	'y'
   0129 78                 4642 	.db #0x78	; 120	'x'
   012A 7F                 4643 	.db #0x7f	; 127
   012B 3F                 4644 	.db #0x3f	; 63
   012C 3E                 4645 	.db #0x3e	; 62
   012D 06                 4646 	.db #0x06	; 6
   012E 02                 4647 	.db #0x02	; 2
   012F 03                 4648 	.db #0x03	; 3
   0130 00                 4649 	.db #0x00	; 0
   0131 C0                 4650 	.db #0xc0	; 192
   0132 E0                 4651 	.db #0xe0	; 224
   0133 A0                 4652 	.db #0xa0	; 160
   0134 E0                 4653 	.db #0xe0	; 224
   0135 20                 4654 	.db #0x20	; 32
   0136 E0                 4655 	.db #0xe0	; 224
   0137 E0                 4656 	.db #0xe0	; 224
   0138 E0                 4657 	.db #0xe0	; 224
   0139 30                 4658 	.db #0x30	; 48	'0'
   013A F0                 4659 	.db #0xf0	; 240
   013B E0                 4660 	.db #0xe0	; 224
   013C 40                 4661 	.db #0x40	; 64
   013D 40                 4662 	.db #0x40	; 64
   013E 40                 4663 	.db #0x40	; 64
   013F 60                 4664 	.db #0x60	; 96
   0140 03                 4665 	.db #0x03	; 3
   0141 07                 4666 	.db #0x07	; 7
   0142 05                 4667 	.db #0x05	; 5
   0143 07                 4668 	.db #0x07	; 7
   0144 04                 4669 	.db #0x04	; 4
   0145 07                 4670 	.db #0x07	; 7
   0146 01                 4671 	.db #0x01	; 1
   0147 0F                 4672 	.db #0x0f	; 15
   0148 08                 4673 	.db #0x08	; 8
   0149 0F                 4674 	.db #0x0f	; 15
   014A 07                 4675 	.db #0x07	; 7
   014B 02                 4676 	.db #0x02	; 2
   014C 02                 4677 	.db #0x02	; 2
   014D 06                 4678 	.db #0x06	; 6
   014E 0C                 4679 	.db #0x0c	; 12
   014F 00                 4680 	.db #0x00	; 0
   0150 C0                 4681 	.db #0xc0	; 192
   0151 E0                 4682 	.db #0xe0	; 224
   0152 E0                 4683 	.db #0xe0	; 224
   0153 E0                 4684 	.db #0xe0	; 224
   0154 FC                 4685 	.db #0xfc	; 252
   0155 FE                 4686 	.db #0xfe	; 254
   0156 CE                 4687 	.db #0xce	; 206
   0157 9E                 4688 	.db #0x9e	; 158
   0158 1E                 4689 	.db #0x1e	; 30
   0159 FE                 4690 	.db #0xfe	; 254
   015A FC                 4691 	.db #0xfc	; 252
   015B 7C                 4692 	.db #0x7c	; 124
   015C 60                 4693 	.db #0x60	; 96
   015D 30                 4694 	.db #0x30	; 48	'0'
   015E 10                 4695 	.db #0x10	; 16
   015F 30                 4696 	.db #0x30	; 48	'0'
   0160 00                 4697 	.db #0x00	; 0
   0161 03                 4698 	.db #0x03	; 3
   0162 07                 4699 	.db #0x07	; 7
   0163 05                 4700 	.db #0x05	; 5
   0164 07                 4701 	.db #0x07	; 7
   0165 04                 4702 	.db #0x04	; 4
   0166 07                 4703 	.db #0x07	; 7
   0167 07                 4704 	.db #0x07	; 7
   0168 07                 4705 	.db #0x07	; 7
   0169 0C                 4706 	.db #0x0c	; 12
   016A 0F                 4707 	.db #0x0f	; 15
   016B 07                 4708 	.db #0x07	; 7
   016C 02                 4709 	.db #0x02	; 2
   016D 02                 4710 	.db #0x02	; 2
   016E 02                 4711 	.db #0x02	; 2
   016F 06                 4712 	.db #0x06	; 6
   0170 00                 4713 	.db #0x00	; 0
   0171 C0                 4714 	.db #0xc0	; 192
   0172 E0                 4715 	.db #0xe0	; 224
   0173 E0                 4716 	.db #0xe0	; 224
   0174 E0                 4717 	.db #0xe0	; 224
   0175 FC                 4718 	.db #0xfc	; 252
   0176 FE                 4719 	.db #0xfe	; 254
   0177 DE                 4720 	.db #0xde	; 222
   0178 9E                 4721 	.db #0x9e	; 158
   0179 1E                 4722 	.db #0x1e	; 30
   017A FE                 4723 	.db #0xfe	; 254
   017B FC                 4724 	.db #0xfc	; 252
   017C 7C                 4725 	.db #0x7c	; 124
   017D 60                 4726 	.db #0x60	; 96
   017E 40                 4727 	.db #0x40	; 64
   017F C0                 4728 	.db #0xc0	; 192
   0180 02                 4729 	.db #0x02	; 2
   0181 1C                 4730 	.db #0x1c	; 28
   0182 7A                 4731 	.db #0x7a	; 122	'z'
   0183 78                 4732 	.db #0x78	; 120	'x'
   0184 7E                 4733 	.db #0x7e	; 126
   0185 3E                 4734 	.db #0x3e	; 62
   0186 38                 4735 	.db #0x38	; 56	'8'
   0187 26                 4736 	.db #0x26	; 38
   0188 10                 4737 	.db #0x10	; 16
   0189 2C                 4738 	.db #0x2c	; 44
   018A 27                 4739 	.db #0x27	; 39
   018B 30                 4740 	.db #0x30	; 48	'0'
   018C 18                 4741 	.db #0x18	; 24
   018D 1F                 4742 	.db #0x1f	; 31
   018E 0C                 4743 	.db #0x0c	; 12
   018F 07                 4744 	.db #0x07	; 7
   0190 80                 4745 	.db #0x80	; 128
   0191 18                 4746 	.db #0x18	; 24
   0192 BE                 4747 	.db #0xbe	; 190
   0193 1E                 4748 	.db #0x1e	; 30
   0194 AE                 4749 	.db #0xae	; 174
   0195 AC                 4750 	.db #0xac	; 172
   0196 1A                 4751 	.db #0x1a	; 26
   0197 B6                 4752 	.db #0xb6	; 182
   0198 0A                 4753 	.db #0x0a	; 10
   0199 1A                 4754 	.db #0x1a	; 26
   019A E4                 4755 	.db #0xe4	; 228
   019B 08                 4756 	.db #0x08	; 8
   019C 34                 4757 	.db #0x34	; 52	'4'
   019D EC                 4758 	.db #0xec	; 236
   019E 18                 4759 	.db #0x18	; 24
   019F F0                 4760 	.db #0xf0	; 240
   01A0                    4761 __xinit__COLOR_DATA:
   01A0 09                 4762 	.db #0x09	; 9
   01A1 08                 4763 	.db #0x08	; 8
   01A2 08                 4764 	.db #0x08	; 8
   01A3 0A                 4765 	.db #0x0a	; 10
   01A4 0A                 4766 	.db #0x0a	; 10
   01A5 0A                 4767 	.db #0x0a	; 10
   01A6 0A                 4768 	.db #0x0a	; 10
   01A7 0A                 4769 	.db #0x0a	; 10
   01A8 0A                 4770 	.db #0x0a	; 10
   01A9 0A                 4771 	.db #0x0a	; 10
   01AA 05                 4772 	.db #0x05	; 5
   01AB 05                 4773 	.db #0x05	; 5
   01AC 05                 4774 	.db #0x05	; 5
   01AD 05                 4775 	.db #0x05	; 5
   01AE 04                 4776 	.db #0x04	; 4
   01AF 04                 4777 	.db #0x04	; 4
   01B0 09                 4778 	.db #0x09	; 9
   01B1 08                 4779 	.db #0x08	; 8
   01B2 08                 4780 	.db #0x08	; 8
   01B3 0A                 4781 	.db #0x0a	; 10
   01B4 0A                 4782 	.db #0x0a	; 10
   01B5 0A                 4783 	.db #0x0a	; 10
   01B6 0A                 4784 	.db #0x0a	; 10
   01B7 0A                 4785 	.db #0x0a	; 10
   01B8 0A                 4786 	.db #0x0a	; 10
   01B9 0A                 4787 	.db #0x0a	; 10
   01BA 05                 4788 	.db #0x05	; 5
   01BB 05                 4789 	.db #0x05	; 5
   01BC 05                 4790 	.db #0x05	; 5
   01BD 05                 4791 	.db #0x05	; 5
   01BE 04                 4792 	.db #0x04	; 4
   01BF 04                 4793 	.db #0x04	; 4
   01C0 09                 4794 	.db #0x09	; 9
   01C1 08                 4795 	.db #0x08	; 8
   01C2 08                 4796 	.db #0x08	; 8
   01C3 0A                 4797 	.db #0x0a	; 10
   01C4 0A                 4798 	.db #0x0a	; 10
   01C5 0A                 4799 	.db #0x0a	; 10
   01C6 0A                 4800 	.db #0x0a	; 10
   01C7 0A                 4801 	.db #0x0a	; 10
   01C8 0A                 4802 	.db #0x0a	; 10
   01C9 0A                 4803 	.db #0x0a	; 10
   01CA 05                 4804 	.db #0x05	; 5
   01CB 05                 4805 	.db #0x05	; 5
   01CC 05                 4806 	.db #0x05	; 5
   01CD 05                 4807 	.db #0x05	; 5
   01CE 04                 4808 	.db #0x04	; 4
   01CF 04                 4809 	.db #0x04	; 4
   01D0 09                 4810 	.db #0x09	; 9
   01D1 08                 4811 	.db #0x08	; 8
   01D2 08                 4812 	.db #0x08	; 8
   01D3 0A                 4813 	.db #0x0a	; 10
   01D4 0A                 4814 	.db #0x0a	; 10
   01D5 0A                 4815 	.db #0x0a	; 10
   01D6 0A                 4816 	.db #0x0a	; 10
   01D7 0A                 4817 	.db #0x0a	; 10
   01D8 0A                 4818 	.db #0x0a	; 10
   01D9 0A                 4819 	.db #0x0a	; 10
   01DA 05                 4820 	.db #0x05	; 5
   01DB 05                 4821 	.db #0x05	; 5
   01DC 05                 4822 	.db #0x05	; 5
   01DD 05                 4823 	.db #0x05	; 5
   01DE 04                 4824 	.db #0x04	; 4
   01DF 04                 4825 	.db #0x04	; 4
   01E0 09                 4826 	.db #0x09	; 9
   01E1 08                 4827 	.db #0x08	; 8
   01E2 08                 4828 	.db #0x08	; 8
   01E3 0A                 4829 	.db #0x0a	; 10
   01E4 0A                 4830 	.db #0x0a	; 10
   01E5 0A                 4831 	.db #0x0a	; 10
   01E6 0A                 4832 	.db #0x0a	; 10
   01E7 0A                 4833 	.db #0x0a	; 10
   01E8 0A                 4834 	.db #0x0a	; 10
   01E9 0A                 4835 	.db #0x0a	; 10
   01EA 05                 4836 	.db #0x05	; 5
   01EB 05                 4837 	.db #0x05	; 5
   01EC 05                 4838 	.db #0x05	; 5
   01ED 05                 4839 	.db #0x05	; 5
   01EE 04                 4840 	.db #0x04	; 4
   01EF 04                 4841 	.db #0x04	; 4
   01F0 09                 4842 	.db #0x09	; 9
   01F1 08                 4843 	.db #0x08	; 8
   01F2 08                 4844 	.db #0x08	; 8
   01F3 0A                 4845 	.db #0x0a	; 10
   01F4 0A                 4846 	.db #0x0a	; 10
   01F5 0A                 4847 	.db #0x0a	; 10
   01F6 0A                 4848 	.db #0x0a	; 10
   01F7 0A                 4849 	.db #0x0a	; 10
   01F8 0A                 4850 	.db #0x0a	; 10
   01F9 0A                 4851 	.db #0x0a	; 10
   01FA 05                 4852 	.db #0x05	; 5
   01FB 05                 4853 	.db #0x05	; 5
   01FC 05                 4854 	.db #0x05	; 5
   01FD 05                 4855 	.db #0x05	; 5
   01FE 04                 4856 	.db #0x04	; 4
   01FF 04                 4857 	.db #0x04	; 4
   0200 09                 4858 	.db #0x09	; 9
   0201 08                 4859 	.db #0x08	; 8
   0202 08                 4860 	.db #0x08	; 8
   0203 0A                 4861 	.db #0x0a	; 10
   0204 0A                 4862 	.db #0x0a	; 10
   0205 0A                 4863 	.db #0x0a	; 10
   0206 0A                 4864 	.db #0x0a	; 10
   0207 0A                 4865 	.db #0x0a	; 10
   0208 0A                 4866 	.db #0x0a	; 10
   0209 0A                 4867 	.db #0x0a	; 10
   020A 05                 4868 	.db #0x05	; 5
   020B 05                 4869 	.db #0x05	; 5
   020C 05                 4870 	.db #0x05	; 5
   020D 05                 4871 	.db #0x05	; 5
   020E 04                 4872 	.db #0x04	; 4
   020F 04                 4873 	.db #0x04	; 4
   0210 09                 4874 	.db #0x09	; 9
   0211 08                 4875 	.db #0x08	; 8
   0212 08                 4876 	.db #0x08	; 8
   0213 0A                 4877 	.db #0x0a	; 10
   0214 0A                 4878 	.db #0x0a	; 10
   0215 0A                 4879 	.db #0x0a	; 10
   0216 0A                 4880 	.db #0x0a	; 10
   0217 0A                 4881 	.db #0x0a	; 10
   0218 0A                 4882 	.db #0x0a	; 10
   0219 0A                 4883 	.db #0x0a	; 10
   021A 05                 4884 	.db #0x05	; 5
   021B 05                 4885 	.db #0x05	; 5
   021C 05                 4886 	.db #0x05	; 5
   021D 05                 4887 	.db #0x05	; 5
   021E 04                 4888 	.db #0x04	; 4
   021F 04                 4889 	.db #0x04	; 4
   0220 0F                 4890 	.db #0x0f	; 15
   0221 0F                 4891 	.db #0x0f	; 15
   0222 0F                 4892 	.db #0x0f	; 15
   0223 0F                 4893 	.db #0x0f	; 15
   0224 0F                 4894 	.db #0x0f	; 15
   0225 0F                 4895 	.db #0x0f	; 15
   0226 0F                 4896 	.db #0x0f	; 15
   0227 0F                 4897 	.db #0x0f	; 15
   0228 0F                 4898 	.db #0x0f	; 15
   0229 0F                 4899 	.db #0x0f	; 15
   022A 0F                 4900 	.db #0x0f	; 15
   022B 0F                 4901 	.db #0x0f	; 15
   022C 0F                 4902 	.db #0x0f	; 15
   022D 0F                 4903 	.db #0x0f	; 15
   022E 0F                 4904 	.db #0x0f	; 15
   022F 0F                 4905 	.db #0x0f	; 15
   0230 0F                 4906 	.db #0x0f	; 15
   0231 0F                 4907 	.db #0x0f	; 15
   0232 0F                 4908 	.db #0x0f	; 15
   0233 0F                 4909 	.db #0x0f	; 15
   0234 0F                 4910 	.db #0x0f	; 15
   0235 0F                 4911 	.db #0x0f	; 15
   0236 0F                 4912 	.db #0x0f	; 15
   0237 0F                 4913 	.db #0x0f	; 15
   0238 0F                 4914 	.db #0x0f	; 15
   0239 0F                 4915 	.db #0x0f	; 15
   023A 0F                 4916 	.db #0x0f	; 15
   023B 0F                 4917 	.db #0x0f	; 15
   023C 0F                 4918 	.db #0x0f	; 15
   023D 0F                 4919 	.db #0x0f	; 15
   023E 0F                 4920 	.db #0x0f	; 15
   023F 0F                 4921 	.db #0x0f	; 15
   0240 0F                 4922 	.db #0x0f	; 15
   0241 0F                 4923 	.db #0x0f	; 15
   0242 0F                 4924 	.db #0x0f	; 15
   0243 0F                 4925 	.db #0x0f	; 15
   0244 0F                 4926 	.db #0x0f	; 15
   0245 0F                 4927 	.db #0x0f	; 15
   0246 0F                 4928 	.db #0x0f	; 15
   0247 0F                 4929 	.db #0x0f	; 15
   0248 0F                 4930 	.db #0x0f	; 15
   0249 0F                 4931 	.db #0x0f	; 15
   024A 0F                 4932 	.db #0x0f	; 15
   024B 0F                 4933 	.db #0x0f	; 15
   024C 0F                 4934 	.db #0x0f	; 15
   024D 0F                 4935 	.db #0x0f	; 15
   024E 0F                 4936 	.db #0x0f	; 15
   024F 0F                 4937 	.db #0x0f	; 15
   0250 0F                 4938 	.db #0x0f	; 15
   0251 0F                 4939 	.db #0x0f	; 15
   0252 0F                 4940 	.db #0x0f	; 15
   0253 0F                 4941 	.db #0x0f	; 15
   0254 0F                 4942 	.db #0x0f	; 15
   0255 0F                 4943 	.db #0x0f	; 15
   0256 0F                 4944 	.db #0x0f	; 15
   0257 0F                 4945 	.db #0x0f	; 15
   0258 0F                 4946 	.db #0x0f	; 15
   0259 0F                 4947 	.db #0x0f	; 15
   025A 0F                 4948 	.db #0x0f	; 15
   025B 0F                 4949 	.db #0x0f	; 15
   025C 0F                 4950 	.db #0x0f	; 15
   025D 0F                 4951 	.db #0x0f	; 15
   025E 0F                 4952 	.db #0x0f	; 15
   025F 0F                 4953 	.db #0x0f	; 15
   0260 0A                 4954 	.db #0x0a	; 10
   0261 0A                 4955 	.db #0x0a	; 10
   0262 0A                 4956 	.db #0x0a	; 10
   0263 0A                 4957 	.db #0x0a	; 10
   0264 0A                 4958 	.db #0x0a	; 10
   0265 0A                 4959 	.db #0x0a	; 10
   0266 0A                 4960 	.db #0x0a	; 10
   0267 0A                 4961 	.db #0x0a	; 10
   0268 09                 4962 	.db #0x09	; 9
   0269 09                 4963 	.db #0x09	; 9
   026A 09                 4964 	.db #0x09	; 9
   026B 09                 4965 	.db #0x09	; 9
   026C 08                 4966 	.db #0x08	; 8
   026D 08                 4967 	.db #0x08	; 8
   026E 08                 4968 	.db #0x08	; 8
   026F 08                 4969 	.db #0x08	; 8
   0270                    4970 __xinit__COLOR_DATA_ENEMY:
   0270 0F                 4971 	.db #0x0f	; 15
   0271 0F                 4972 	.db #0x0f	; 15
   0272 0F                 4973 	.db #0x0f	; 15
   0273 0F                 4974 	.db #0x0f	; 15
   0274 0F                 4975 	.db #0x0f	; 15
   0275 0F                 4976 	.db #0x0f	; 15
   0276 0F                 4977 	.db #0x0f	; 15
   0277 0F                 4978 	.db #0x0f	; 15
   0278 0F                 4979 	.db #0x0f	; 15
   0279 0F                 4980 	.db #0x0f	; 15
   027A 0F                 4981 	.db #0x0f	; 15
   027B 0F                 4982 	.db #0x0f	; 15
   027C 0F                 4983 	.db #0x0f	; 15
   027D 0F                 4984 	.db #0x0f	; 15
   027E 0F                 4985 	.db #0x0f	; 15
   027F 0F                 4986 	.db #0x0f	; 15
   0280                    4987 __xinit__COLOR_DATA_MONEY:
   0280 0F                 4988 	.db #0x0f	; 15
   0281 0F                 4989 	.db #0x0f	; 15
   0282 0F                 4990 	.db #0x0f	; 15
   0283 0F                 4991 	.db #0x0f	; 15
   0284 0F                 4992 	.db #0x0f	; 15
   0285 0F                 4993 	.db #0x0f	; 15
   0286 0F                 4994 	.db #0x0f	; 15
   0287 0F                 4995 	.db #0x0f	; 15
   0288 0F                 4996 	.db #0x0f	; 15
   0289 0F                 4997 	.db #0x0f	; 15
   028A 0F                 4998 	.db #0x0f	; 15
   028B 0F                 4999 	.db #0x0f	; 15
   028C 0F                 5000 	.db #0x0f	; 15
   028D 0F                 5001 	.db #0x0f	; 15
   028E 0F                 5002 	.db #0x0f	; 15
   028F 0F                 5003 	.db #0x0f	; 15
   0290                    5004 __xinit__world_enemies:
   0290 50 00              5005 	.dw #0x0050
   0292 18 00              5006 	.dw #0x0018
   0294 02                 5007 	.db #0x02	; 2
   0295 20 00              5008 	.dw #0x0020
   0297 18 00              5009 	.dw #0x0018
   0299 02                 5010 	.db #0x02	; 2
   029A 30 00              5011 	.dw #0x0030
   029C 48 00              5012 	.dw #0x0048
   029E 02                 5013 	.db #0x02	; 2
   029F A0 00              5014 	.dw #0x00a0
   02A1 78 00              5015 	.dw #0x0078
   02A3 02                 5016 	.db #0x02	; 2
   02A4 50 00              5017 	.dw #0x0050
   02A6 A0 00              5018 	.dw #0x00a0
   02A8 02                 5019 	.db #0x02	; 2
   02A9 00                 5020 	.db 0x00
   02AA 00                 5021 	.db 0x00
   02AB 00                 5022 	.db 0x00
   02AC 00                 5023 	.db 0x00
   02AD 00                 5024 	.db 0x00
   02AE 00                 5025 	.db 0x00
   02AF 00                 5026 	.db 0x00
   02B0 00                 5027 	.db 0x00
   02B1 00                 5028 	.db 0x00
   02B2 00                 5029 	.db 0x00
   02B3 00                 5030 	.db 0x00
   02B4 00                 5031 	.db 0x00
   02B5 00                 5032 	.db 0x00
   02B6 00                 5033 	.db 0x00
   02B7 00                 5034 	.db 0x00
   02B8 00                 5035 	.db 0x00
   02B9 00                 5036 	.db 0x00
   02BA 00                 5037 	.db 0x00
   02BB 00                 5038 	.db 0x00
   02BC 00                 5039 	.db 0x00
   02BD 00                 5040 	.db 0x00
   02BE 00                 5041 	.db 0x00
   02BF 00                 5042 	.db 0x00
   02C0 00                 5043 	.db 0x00
   02C1 00                 5044 	.db 0x00
   02C2 40 00              5045 	.dw #0x0040
   02C4 08 00              5046 	.dw #0x0008
   02C6 02                 5047 	.db #0x02	; 2
   02C7 28 00              5048 	.dw #0x0028
   02C9 28 00              5049 	.dw #0x0028
   02CB 02                 5050 	.db #0x02	; 2
   02CC C8 00              5051 	.dw #0x00c8
   02CE 50 00              5052 	.dw #0x0050
   02D0 02                 5053 	.db #0x02	; 2
   02D1 C8 00              5054 	.dw #0x00c8
   02D3 78 00              5055 	.dw #0x0078
   02D5 02                 5056 	.db #0x02	; 2
   02D6 50 00              5057 	.dw #0x0050
   02D8 A0 00              5058 	.dw #0x00a0
   02DA 02                 5059 	.db #0x02	; 2
   02DB 00                 5060 	.db 0x00
   02DC 00                 5061 	.db 0x00
   02DD 00                 5062 	.db 0x00
   02DE 00                 5063 	.db 0x00
   02DF 00                 5064 	.db 0x00
   02E0 00                 5065 	.db 0x00
   02E1 00                 5066 	.db 0x00
   02E2 00                 5067 	.db 0x00
   02E3 00                 5068 	.db 0x00
   02E4 00                 5069 	.db 0x00
   02E5 00                 5070 	.db 0x00
   02E6 00                 5071 	.db 0x00
   02E7 00                 5072 	.db 0x00
   02E8 00                 5073 	.db 0x00
   02E9 00                 5074 	.db 0x00
   02EA 00                 5075 	.db 0x00
   02EB 00                 5076 	.db 0x00
   02EC 00                 5077 	.db 0x00
   02ED 00                 5078 	.db 0x00
   02EE 00                 5079 	.db 0x00
   02EF 00                 5080 	.db 0x00
   02F0 00                 5081 	.db 0x00
   02F1 00                 5082 	.db 0x00
   02F2 00                 5083 	.db 0x00
   02F3 00                 5084 	.db 0x00
   02F4                    5085 __xinit__world_objects:
   02F4 28 00              5086 	.dw #0x0028
   02F6 18 00              5087 	.dw #0x0018
   02F8 16                 5088 	.db #0x16	; 22
   02F9 70 00              5089 	.dw #0x0070
   02FB 18 00              5090 	.dw #0x0018
   02FD 16                 5091 	.db #0x16	; 22
   02FE 08 00              5092 	.dw #0x0008
   0300 48 00              5093 	.dw #0x0048
   0302 16                 5094 	.db #0x16	; 22
   0303 F0 00              5095 	.dw #0x00f0
   0305 48 00              5096 	.dw #0x0048
   0307 16                 5097 	.db #0x16	; 22
   0308 08 00              5098 	.dw #0x0008
   030A 78 00              5099 	.dw #0x0078
   030C 16                 5100 	.db #0x16	; 22
   030D F0 00              5101 	.dw #0x00f0
   030F A0 00              5102 	.dw #0x00a0
   0311 16                 5103 	.db #0x16	; 22
   0312 00                 5104 	.db 0x00
   0313 00                 5105 	.db 0x00
   0314 00                 5106 	.db 0x00
   0315 00                 5107 	.db 0x00
   0316 00                 5108 	.db 0x00
   0317 00                 5109 	.db 0x00
   0318 00                 5110 	.db 0x00
   0319 00                 5111 	.db 0x00
   031A 00                 5112 	.db 0x00
   031B 00                 5113 	.db 0x00
   031C 00                 5114 	.db 0x00
   031D 00                 5115 	.db 0x00
   031E 00                 5116 	.db 0x00
   031F 00                 5117 	.db 0x00
   0320 00                 5118 	.db 0x00
   0321 00                 5119 	.db 0x00
   0322 00                 5120 	.db 0x00
   0323 00                 5121 	.db 0x00
   0324 00                 5122 	.db 0x00
   0325 00                 5123 	.db 0x00
   0326 E0 00              5124 	.dw #0x00e0
   0328 08 00              5125 	.dw #0x0008
   032A 16                 5126 	.db #0x16	; 22
   032B 78 00              5127 	.dw #0x0078
   032D 28 00              5128 	.dw #0x0028
   032F 16                 5129 	.db #0x16	; 22
   0330 A0 00              5130 	.dw #0x00a0
   0332 20 00              5131 	.dw #0x0020
   0334 32                 5132 	.db #0x32	; 50	'2'
   0335 18 00              5133 	.dw #0x0018
   0337 60 00              5134 	.dw #0x0060
   0339 16                 5135 	.db #0x16	; 22
   033A 18 00              5136 	.dw #0x0018
   033C 70 00              5137 	.dw #0x0070
   033E 16                 5138 	.db #0x16	; 22
   033F D0 00              5139 	.dw #0x00d0
   0341 A0 00              5140 	.dw #0x00a0
   0343 16                 5141 	.db #0x16	; 22
   0344 18 00              5142 	.dw #0x0018
   0346 A0 00              5143 	.dw #0x00a0
   0348 16                 5144 	.db #0x16	; 22
   0349 00                 5145 	.db 0x00
   034A 00                 5146 	.db 0x00
   034B 00                 5147 	.db 0x00
   034C 00                 5148 	.db 0x00
   034D 00                 5149 	.db 0x00
   034E 00                 5150 	.db 0x00
   034F 00                 5151 	.db 0x00
   0350 00                 5152 	.db 0x00
   0351 00                 5153 	.db 0x00
   0352 00                 5154 	.db 0x00
   0353 00                 5155 	.db 0x00
   0354 00                 5156 	.db 0x00
   0355 00                 5157 	.db 0x00
   0356 00                 5158 	.db 0x00
   0357 00                 5159 	.db 0x00
   0358                    5160 __xinit__fileNameSongEffects:
   0358 65 66 66 65 63 74  5161 	.ascii "effects.afb"
        73 2E 61 66 62
   0363 00                 5162 	.db 0x00
   0364                    5163 __xinit__fileNameSong:
   0364 73 6F 6E 67 31 2E  5164 	.ascii "song1.pt3"
        70 74 33
   036D 00                 5165 	.db 0x00
                           5166 	.area _CABS (ABS)
